################################################################################
#                                                                              #
#      IAR Universal Linker V6.5.1.95                                          #
#                                                                              #
#           Link time     =  29/May/2024  16:54:08                             #
#           Target CPU    =  MSP430                                            #
#           List file     =  C:\Projetos\Ztec\Source\emeter-app\emeter-app-676 #
#                            41\Debug\List\emeter-app-67641.map                #
#           Output file 1 =  C:\Projetos\Ztec\Source\emeter-app\emeter-app-676 #
#                            41\Debug\Exe\emeter-app-67641.d43                 #
#                            Format: ubrof10                                   #
#                            UBROF version 10.0.6                              #
#                            Using library modules for C-SPY (-rt)             #
#           Command line  =  -f C:\Users\liwka\AppData\Local\Temp\EW73E7.tmp   #
#                            (C:\Projetos\Ztec\Source\emeter-app\emeter-app-67 #
#                            641\Debug\Obj\emeter-basic-display.r43            #
#                            C:\Projetos\Ztec\Source\emeter-app\emeter-app-676 #
#                            41\Debug\Obj\emeter-basic-oled.r43                #
#                            C:\Projetos\Ztec\Source\emeter-app\emeter-app-676 #
#                            41\Debug\Obj\emeter-communication.r43             #
#                            C:\Projetos\Ztec\Source\emeter-app\emeter-app-676 #
#                            41\Debug\Obj\emeter-dlt645.r43                    #
#                            C:\Projetos\Ztec\Source\emeter-app\emeter-app-676 #
#                            41\Debug\Obj\emeter-keypad.r43                    #
#                            C:\Projetos\Ztec\Source\emeter-app\emeter-app-676 #
#                            41\Debug\Obj\emeter-lcd.r43                       #
#                            C:\Projetos\Ztec\Source\emeter-app\emeter-app-676 #
#                            41\Debug\Obj\emeter-main.r43                      #
#                            C:\Projetos\Ztec\Source\emeter-metrology\emeter-m #
#                            etrology-67641\Debug\Exe\emeter-metrology-67641.r #
#                            43                                                #
#                            C:\Projetos\Ztec\Source\emeter-app\emeter-app-676 #
#                            41\Debug\Obj\emeter-multirate.r43                 #
#                            C:\Projetos\Ztec\Source\emeter-app\emeter-app-676 #
#                            41\Debug\Obj\emeter-oled.r43                      #
#                            C:\Projetos\Ztec\Source\emeter-app\emeter-app-676 #
#                            41\Debug\Obj\emeter-rtc-c.r43                     #
#                            C:\Projetos\Ztec\Source\emeter-app\emeter-app-676 #
#                            41\Debug\Obj\emeter-setup.r43                     #
#                            -o                                                #
#                            C:\Projetos\Ztec\Source\emeter-app\emeter-app-676 #
#                            41\Debug\Exe\emeter-app-67641.d43                 #
#                            -l                                                #
#                            C:\Projetos\Ztec\Source\emeter-app\emeter-app-676 #
#                            41\Debug\List\emeter-app-67641.map                #
#                            -xms                                              #
#                            "-IC:\Program Files (x86)\IAR Systems\Embedded Wo #
#                            rkbench 8.0\430\LIB\"                             #
#                            -f                                                #
#                            "C:\Program Files (x86)\IAR Systems\Embedded Work #
#                            bench 8.0\430\config\linker\lnk430f67641a.xcl"    #
#                            (-cmsp430 -QCODE_I=CODE_ID -QTLS16_I=TLS16_ID     #
#                            -D__iar_HWMUL=4C0 -Z(CONST)INFO=1800-19FF         #
#                            -Z(CONST)INFOA=1980-19FF                          #
#                            -Z(CONST)INFOB=1900-197F                          #
#                            -Z(CONST)INFOC=1880-18FF                          #
#                            -Z(CONST)INFOD=1800-187F                          #
#                            -Z(DATA)DATA16_I,DATA16_Z,DATA16_N,TLS16_I=1C00-3 #
#                            BFF                                               #
#                            -Z(DATA)DATA16_HEAP+_DATA16_HEAP_SIZE             #
#                            -Z(DATA)CODE_I                                    #
#                            -Z(DATA)DATA20_I,DATA20_Z,DATA20_N,DATA20_HEAP+_D #
#                            ATA20_HEAP_SIZE                                   #
#                            -Z(DATA)CSTACK+_STACK_SIZE#                       #
#                            -Z(CONST)DATA16_C,DATA16_ID,TLS16_ID,DIFUNCT,CHEC #
#                            KSUM=4000-FF7F                                    #
#                            -Z(CODE)CSTART,ISR_CODE,CODE16=4000-FF7F          #
#                            -P(CODE)CODE=4000-FF7F,10000-23FFF                #
#                            -Z(CONST)DATA20_C,DATA20_ID,CODE_ID=4000-FF7F,100 #
#                            40-23FFF                                          #
#                            -Z(CODE)INTVEC=FF80-FFFF                          #
#                            -Z(CODE)RESET=FFFE-FFFF) -f                       #
#                            "C:\Program Files (x86)\IAR Systems\Embedded Work #
#                            bench 8.0\430\config\linker\multiplier32.xcl"     #
#                            (-e?Mul8Hw=?Mul8 -e?Mul16Hw=?Mul16                #
#                            -e?Mul16to32uHw=?Mul16to32u                       #
#                            -e?Mul16to32sHw=?Mul16to32s -e?Mul32Hw32=?Mul32   #
#                            -e?Mul64Hw32=_Mul64i                              #
#                            -e?Mul32u32uto64iHw32=_Mul32u32uto64i             #
#                            -e?Mul32fHw32=_Mul32f                             #
#                            -e_Mul64fHw32Ptr=_Mul64fPtr) -D_STACK_SIZE=96     #
#                            -rt                                               #
#                            "C:\Program Files (x86)\IAR Systems\Embedded Work #
#                            bench 8.0\430\lib\dlib\dl430xllfn.r43"            #
#                            -e_PrintfLarge=_Printf -e_ScanfLarge=_Scanf       #
#                            -D_DATA16_HEAP_SIZE=50 -s __program_start         #
#                            -D_DATA20_HEAP_SIZE=50)                           #
#                                                                              #
#                           Copyright (C) 1987-2016 IAR Systems AB.            #
################################################################################





                ****************************************
                *                                      *
                *           CROSS REFERENCE            *
                *                                      *
                ****************************************

       Program entry at :           4000  Relocatable, from module : ?cstart




                ****************************************
                *                                      *
                *            RUNTIME MODEL             *
                *                                      *
                ****************************************

  __Heap_Handler             = Basic
  __SystemLibrary            = DLib
  __code_model               = large
  __core                     = 430X
  __data_model               = large
  __dlib_file_descriptor     = 0
  __dlib_full_locale_support = 0
  __double_size              = 32
  __pic                      = no
  __reg_r4                   = free
  __reg_r5                   = free
  __rt_version               = 3

                ****************************************
                *                                      *
                *    AUTOMATIC SYMBOL REDIRECTIONS     *
                *                                      *
                ****************************************

                  There are no automatic symbol redirections.



                ****************************************
                *                                      *
                *              MODULE MAP              *
                *                                      *
                ****************************************


  DEFINED ABSOLUTE ENTRIES
    *************************************************************************

  DEFINED ABSOLUTE ENTRIES
  PROGRAM MODULE, NAME : ?ABS_ENTRY_MOD

Absolute parts
           ENTRY                   ADDRESS         REF BY
           =====                   =======         ======
           _DATA20_HEAP_SIZE       0050 
           _DATA16_HEAP_SIZE       0050 
           _STACK_SIZE             0096 
           __iar_HWMUL             04C0            ?Mul16to32sHw (?Mul16to32sHw)
                                                   ?Mul32Hw32 (?Mul32Hw32)
                                                   ?Mul32fHw32 (?Mul32fHw32)
                                                   ?Mul32u32uto64iHw32 (?Mul32u32uto64iHw32)
                                                   ?Mul64Hw32 (?Mul64Hw32)
                                                   Segment part 1 (?Mul8Hw)
    *************************************************************************

  FILE NAME : C:\Projetos\Ztec\Source\emeter-app\emeter-app-67641\Debug\Obj\emeter-basic-display.r43
    *************************************************************************

  FILE NAME : C:\Projetos\Ztec\Source\emeter-app\emeter-app-67641\Debug\Obj\emeter-basic-oled.r43
  PROGRAM MODULE, NAME : emeter-basic-oled

  SEGMENTS IN THE MODULE
  ======================
DATA20_I
  Relative segment, address: 1C00 - 1C01 (0x2 bytes), align: 1
  Segment part 49.            Intra module refs:   update_oled
           ENTRY                   ADDRESS         REF BY
           =====                   =======         ======
           oled_step               1C00            main (emeter-main)
    -------------------------------------------------------------------------
<CODE> 1 (was CODE)
  Relative segment, address: 8714 - 874F (0x3c bytes), align: 1
  Segment part 51.
           ENTRY                   ADDRESS         REF BY
           =====                   =======         ======
           OLED_display_startup_message
                                   8714            system_setup (emeter-setup)
               calls direct
    -------------------------------------------------------------------------
<CODE> 1 (was CODE)
  Relative segment, address: 797E - 7A0D (0x90 bytes), align: 1
  Segment part 52.            Intra module refs:   display_oled_item
           LOCAL                   ADDRESS         
           =====                   =======         
           oled_date_temp          797E 
               calls direct
    -------------------------------------------------------------------------
<CODE> 1 (was CODE)
  Relative segment, address: 768E - 7695 (0x8 bytes), align: 1
  Segment part 71.            Intra module refs:   oled_rms_current
                                                   oled_rms_voltage
           LOCAL                   ADDRESS         
           =====                   =======         
           ?Subroutine7            768E 
    -------------------------------------------------------------------------
<CODE> 1 (was CODE)
  Relative segment, address: 7696 - 769B (0x6 bytes), align: 1
  Segment part 72.            Intra module refs:   oled_rms_current
                                                   oled_rms_voltage
           LOCAL                   ADDRESS         
           =====                   =======         
           ?Subroutine6            7696 
    -------------------------------------------------------------------------
<CODE> 1 (was CODE)
  Relative segment, address: 769C - 76A5 (0xa bytes), align: 1
  Segment part 73.            Intra module refs:   oled_rms_current
                                                   oled_rms_voltage
           LOCAL                   ADDRESS         
           =====                   =======         
           ?Subroutine5            769C 
    -------------------------------------------------------------------------
<CODE> 1 (was CODE)
  Relative segment, address: 76A6 - 76FB (0x56 bytes), align: 1
  Segment part 74.            Intra module refs:   display_oled_item
           LOCAL                   ADDRESS         
           =====                   =======         
           oled_mains_frequency    76A6 
               calls direct
    -------------------------------------------------------------------------
<CODE> 1 (was CODE)
  Relative segment, address: 76FC - 76FF (0x4 bytes), align: 1
  Segment part 75.            Intra module refs:   oled_mains_frequency
                                                   oled_power_factor
           LOCAL                   ADDRESS         
           =====                   =======         
           ?Subroutine4            76FC 
    -------------------------------------------------------------------------
<CODE> 1 (was CODE)
  Relative segment, address: 7700 - 7703 (0x4 bytes), align: 1
  Segment part 76.            Intra module refs:   ?Subroutine4
                                                   ?Subroutine6
           LOCAL                   ADDRESS         
           =====                   =======         
           ?Subroutine19           7700 
    -------------------------------------------------------------------------
<CODE> 1 (was CODE)
  Relative segment, address: 7704 - 7709 (0x6 bytes), align: 1
  Segment part 77.            Intra module refs:   ?Subroutine19
                                                   ?Subroutine2
                                                   ?Subroutine3
                                                   ?Subroutine5
                                                   ?Subroutine7
    -------------------------------------------------------------------------
<CODE> 1 (was CODE)
  Relative segment, address: 770A - 7715 (0xc bytes), align: 1
  Segment part 78.            Intra module refs:   oled_mains_frequency
                                                   oled_power_factor
           LOCAL                   ADDRESS         
           =====                   =======         
           ?Subroutine3            770A 
    -------------------------------------------------------------------------
<CODE> 1 (was CODE)
  Relative segment, address: 7716 - 7721 (0xc bytes), align: 1
  Segment part 79.            Intra module refs:   ?Subroutine18
                                                   ?Subroutine3
                                                   ?Subroutine4
           LOCAL                   ADDRESS         
           =====                   =======         
           ?Subroutine20           7716 
    -------------------------------------------------------------------------
<CODE> 1 (was CODE)
  Relative segment, address: 7722 - 7729 (0x8 bytes), align: 1
  Segment part 80.            Intra module refs:   oled_mains_frequency
                                                   oled_power_factor
           LOCAL                   ADDRESS         
           =====                   =======         
           ?Subroutine2            7722 
    -------------------------------------------------------------------------
<CODE> 1 (was CODE)
  Relative segment, address: 92A6 - 92AF (0xa bytes), align: 1
  Segment part 81.            Intra module refs:   ?Subroutine2
                                                   oled_date_temp
           LOCAL                   ADDRESS         
           =====                   =======         
           ?Subroutine18           92A6 
    -------------------------------------------------------------------------
<CODE> 1 (was CODE)
  Relative segment, address: 5D0A - 5D17 (0xe bytes), align: 1
  Segment part 53.            Intra module refs:   display_oled_item
           LOCAL                   ADDRESS         
           =====                   =======         
           oled_active_power       5D0A 
               calls direct
    -------------------------------------------------------------------------
<CODE> 1 (was CODE)
  Relative segment, address: 5D18 - 5DBB (0xa4 bytes), align: 1
  Segment part 54.            Intra module refs:   oled_active_power
                                                   oled_apparent_power
           LOCAL                   ADDRESS         
           =====                   =======         
           ?Subroutine0            5D18 
    -------------------------------------------------------------------------
<CODE> 1 (was CODE)
  Relative segment, address: 5DBC - 5E6D (0xb2 bytes), align: 1
  Segment part 55.            Intra module refs:   display_oled_item
           LOCAL                   ADDRESS         
           =====                   =======         
           oled_reactive_power     5DBC 
               calls direct
    -------------------------------------------------------------------------
<CODE> 1 (was CODE)
  Relative segment, address: 5E6E - 5E7F (0x12 bytes), align: 1
  Segment part 56.            Intra module refs:   ?Subroutine0
                                                   oled_reactive_power
           LOCAL                   ADDRESS         
           =====                   =======         
           ?Subroutine16           5E6E 
    -------------------------------------------------------------------------
<CODE> 1 (was CODE)
  Relative segment, address: 5E80 - 5E87 (0x8 bytes), align: 1
  Segment part 57.            Intra module refs:   ?Subroutine0
                                                   oled_reactive_power
           LOCAL                   ADDRESS         
           =====                   =======         
           ?Subroutine14           5E80 
    -------------------------------------------------------------------------
<CODE> 1 (was CODE)
  Relative segment, address: 5E88 - 5E8D (0x6 bytes), align: 1
  Segment part 58.            Intra module refs:   ?Subroutine10
                                                   ?Subroutine14
                                                   ?Subroutine8
           LOCAL                   ADDRESS         
           =====                   =======         
           ?Subroutine21           5E88 
    -------------------------------------------------------------------------
<CODE> 1 (was CODE)
  Relative segment, address: 5E8E - 5E97 (0xa bytes), align: 1
  Segment part 59.            Intra module refs:   ?Subroutine0
                                                   oled_reactive_power
           LOCAL                   ADDRESS         
           =====                   =======         
           ?Subroutine13           5E8E 
    -------------------------------------------------------------------------
<CODE> 1 (was CODE)
  Relative segment, address: 5E98 - 5EA3 (0xc bytes), align: 1
  Segment part 60.            Intra module refs:   ?Subroutine0
                                                   oled_reactive_power
           LOCAL                   ADDRESS         
           =====                   =======         
           ?Subroutine10           5E98 
    -------------------------------------------------------------------------
<CODE> 1 (was CODE)
  Relative segment, address: 5EA4 - 5EAF (0xc bytes), align: 1
  Segment part 61.            Intra module refs:   ?Subroutine0
                                                   oled_reactive_power
           LOCAL                   ADDRESS         
           =====                   =======         
           ?Subroutine8            5EA4 
    -------------------------------------------------------------------------
<CODE> 1 (was CODE)
  Relative segment, address: 5EB0 - 5EC1 (0x12 bytes), align: 1
  Segment part 62.            Intra module refs:   display_oled_item
           LOCAL                   ADDRESS         
           =====                   =======         
           oled_apparent_power     5EB0 
               calls direct
    -------------------------------------------------------------------------
<CODE> 1 (was CODE)
  Relative segment, address: 8028 - 8085 (0x5e bytes), align: 1
  Segment part 63.            Intra module refs:   display_oled_item
           LOCAL                   ADDRESS         
           =====                   =======         
           oled_power_factor       8028 
               calls direct
    -------------------------------------------------------------------------
<CODE> 1 (was CODE)
  Relative segment, address: 90B4 - 90C7 (0x14 bytes), align: 1
  Segment part 64.            Intra module refs:   oled_power_factor
           LOCAL                   ADDRESS         
           =====                   =======         
           ?Subroutine17           90B4 
    -------------------------------------------------------------------------
<CODE> 1 (was CODE)
  Relative segment, address: 754A - 75EB (0xa2 bytes), align: 1
  Segment part 65.            Intra module refs:   display_oled_item
           LOCAL                   ADDRESS         
           =====                   =======         
           oled_rms_voltage        754A 
               calls direct
    -------------------------------------------------------------------------
<CODE> 1 (was CODE)
  Relative segment, address: 71EE - 71EF (0x2 bytes), align: 1
  Segment part 66.            Intra module refs:   oled_rms_current
                                                   oled_rms_voltage
           LOCAL                   ADDRESS         
           =====                   =======         
           ?Subroutine15           71EE 
    -------------------------------------------------------------------------
<CODE> 1 (was CODE)
  Relative segment, address: 71F0 - 71F5 (0x6 bytes), align: 1
  Segment part 67.            Intra module refs:   ?Subroutine11
                                                   ?Subroutine15
                                                   ?Subroutine9
                                                   update_oled
           LOCAL                   ADDRESS         
           =====                   =======         
           ?Subroutine22           71F0 
    -------------------------------------------------------------------------
<CODE> 1 (was CODE)
  Relative segment, address: 71F6 - 7297 (0xa2 bytes), align: 1
  Segment part 68.            Intra module refs:   display_oled_item
           LOCAL                   ADDRESS         
           =====                   =======         
           oled_rms_current        71F6 
               calls direct
    -------------------------------------------------------------------------
<CODE> 1 (was CODE)
  Relative segment, address: 7298 - 729F (0x8 bytes), align: 1
  Segment part 69.            Intra module refs:   oled_rms_current
                                                   oled_rms_voltage
           LOCAL                   ADDRESS         
           =====                   =======         
           ?Subroutine11           7298 
    -------------------------------------------------------------------------
<CODE> 1 (was CODE)
  Relative segment, address: 72A0 - 72A7 (0x8 bytes), align: 1
  Segment part 70.            Intra module refs:   oled_rms_current
                                                   oled_rms_voltage
           LOCAL                   ADDRESS         
           =====                   =======         
           ?Subroutine9            72A0 
    -------------------------------------------------------------------------
<CODE> 1 (was CODE)
  Relative segment, address: 67BC - 6837 (0x7c bytes), align: 1
  Segment part 82.            Intra module refs:   display_oled_item
           LOCAL                   ADDRESS         
           =====                   =======         
           oled_imported_active_energy
                                   67BC 
               calls direct
    -------------------------------------------------------------------------
<CODE> 1 (was CODE)
  Relative segment, address: 6838 - 6847 (0x10 bytes), align: 1
  Segment part 83.            Intra module refs:   oled_imported_active_energy
                                                   oled_imported_reactive_energy
           LOCAL                   ADDRESS         
           =====                   =======         
           ?Subroutine1            6838 
    -------------------------------------------------------------------------
<CODE> 1 (was CODE)
  Relative segment, address: 6848 - 68F7 (0xb0 bytes), align: 1
  Segment part 84.            Intra module refs:   display_oled_item
           LOCAL                   ADDRESS         
           =====                   =======         
           oled_imported_reactive_energy
                                   6848 
               calls direct
    -------------------------------------------------------------------------
<CODE> 1 (was CODE)
  Relative segment, address: 91A6 - 91B3 (0xe bytes), align: 1
  Segment part 85.            Intra module refs:   oled_imported_active_energy
                                                   oled_imported_reactive_energy
           LOCAL                   ADDRESS         
           =====                   =======         
           ?Subroutine12           91A6 
    -------------------------------------------------------------------------
<CODE> 1 (was CODE)
  Relative segment, address: 8344 - 8395 (0x52 bytes), align: 1
  Segment part 86.            Intra module refs:   update_oled
           ENTRY                   ADDRESS         REF BY
           =====                   =======         ======
           display_oled_item       8344 
               calls direct
    -------------------------------------------------------------------------
<CODE> 1 (was CODE)
  Relative segment, address: 7F00 - 7F63 (0x64 bytes), align: 1
  Segment part 87.
           ENTRY                   ADDRESS         REF BY
           =====                   =======         ======
           update_oled             7F00            main (emeter-main)
               calls direct
    -------------------------------------------------------------------------
DATA20_ID
  Relative segment, address: 9C20 - 9C21 (0x2 bytes), align: 1
  Segment part 50.            Intra module refs:   oled_step
    -------------------------------------------------------------------------
DATA20_C
  Relative segment, address: 97A0 - 97A5 (0x6 bytes), align: 0
  Segment part 2.             Intra module refs:   OLED_display_startup_message
    -------------------------------------------------------------------------
DATA20_C
  Relative segment, address: 97A6 - 97B8 (0x13 bytes), align: 0
  Segment part 3.             Intra module refs:   OLED_display_startup_message
    -------------------------------------------------------------------------
DATA20_C
  Relative segment, address: 97B9 - 97C9 (0x11 bytes), align: 0
  Segment part 4.             Intra module refs:   OLED_display_startup_message
    -------------------------------------------------------------------------
DATA20_C
  Relative segment, address: 97CA - 97D9 (0x10 bytes), align: 0
  Segment part 5.             Intra module refs:   OLED_display_startup_message
    -------------------------------------------------------------------------
DATA20_C
  Relative segment, address: 97DA - 97E1 (0x8 bytes), align: 0
  Segment part 6.             Intra module refs:   oled_date_temp
    -------------------------------------------------------------------------
DATA20_C
  Relative segment, address: 97E2 - 97F2 (0x11 bytes), align: 0
  Segment part 7.             Intra module refs:   oled_date_temp
    -------------------------------------------------------------------------
DATA20_C
  Relative segment, address: 97F3 - 9801 (0xf bytes), align: 0
  Segment part 8.             Intra module refs:   oled_date_temp
    -------------------------------------------------------------------------
DATA20_C
  Relative segment, address: 9802 - 9802 (0x1 bytes), align: 0
  Segment part 9.             Intra module refs:   oled_date_temp
    -------------------------------------------------------------------------
DATA20_C
  Relative segment, address: 9803 - 9811 (0xf bytes), align: 0
  Segment part 10.            Intra module refs:   oled_date_temp
    -------------------------------------------------------------------------
DATA20_C
  Relative segment, address: 9812 - 981E (0xd bytes), align: 0
  Segment part 11.            Intra module refs:   oled_active_power
    -------------------------------------------------------------------------
DATA20_C
  Relative segment, address: 981F - 9821 (0x3 bytes), align: 0
  Segment part 12.            Intra module refs:   ?Subroutine16
                                                   oled_imported_reactive_energy
    -------------------------------------------------------------------------
DATA20_C
  Relative segment, address: 9822 - 9829 (0x8 bytes), align: 0
  Segment part 13.            Intra module refs:   ?Subroutine0
                                                   oled_imported_active_energy
                                                   oled_reactive_power
    -------------------------------------------------------------------------
DATA20_C
  Relative segment, address: 982A - 9843 (0x1a bytes), align: 0
  Segment part 14.            Intra module refs:   ?Subroutine8
    -------------------------------------------------------------------------
DATA20_C
  Relative segment, address: 9844 - 9849 (0x6 bytes), align: 0
  Segment part 15.            Intra module refs:   ?Subroutine0
                                                   oled_imported_reactive_energy
                                                   oled_reactive_power
    -------------------------------------------------------------------------
DATA20_C
  Relative segment, address: 984A - 9863 (0x1a bytes), align: 0
  Segment part 16.            Intra module refs:   ?Subroutine14
    -------------------------------------------------------------------------
DATA20_C
  Relative segment, address: 9864 - 9869 (0x6 bytes), align: 0
  Segment part 17.            Intra module refs:   ?Subroutine0
                                                   oled_imported_reactive_energy
                                                   oled_reactive_power
    -------------------------------------------------------------------------
DATA20_C
  Relative segment, address: 986A - 9883 (0x1a bytes), align: 0
  Segment part 18.            Intra module refs:   ?Subroutine10
    -------------------------------------------------------------------------
DATA20_C
  Relative segment, address: 9884 - 9889 (0x6 bytes), align: 0
  Segment part 19.            Intra module refs:   ?Subroutine0
                                                   oled_imported_reactive_energy
                                                   oled_reactive_power
    -------------------------------------------------------------------------
DATA20_C
  Relative segment, address: 988A - 9899 (0x10 bytes), align: 0
  Segment part 20.            Intra module refs:   oled_reactive_power
    -------------------------------------------------------------------------
DATA20_C
  Relative segment, address: 989A - 98A8 (0xf bytes), align: 0
  Segment part 21.            Intra module refs:   oled_apparent_power
    -------------------------------------------------------------------------
DATA20_C
  Relative segment, address: 98A9 - 98B5 (0xd bytes), align: 0
  Segment part 22.            Intra module refs:   oled_power_factor
    -------------------------------------------------------------------------
DATA20_C
  Relative segment, address: 98B6 - 98B8 (0x3 bytes), align: 0
  Segment part 23.            Intra module refs:   ?Subroutine17
    -------------------------------------------------------------------------
DATA20_C
  Relative segment, address: 98B9 - 98BB (0x3 bytes), align: 0
  Segment part 24.            Intra module refs:   ?Subroutine17
    -------------------------------------------------------------------------
DATA20_C
  Relative segment, address: 98BC - 98BF (0x4 bytes), align: 0
  Segment part 25.            Intra module refs:   oled_power_factor
                                                   oled_rms_current
                                                   oled_rms_voltage
    -------------------------------------------------------------------------
DATA20_C
  Relative segment, address: 98C0 - 98C3 (0x4 bytes), align: 0
  Segment part 26.            Intra module refs:   oled_power_factor
                                                   oled_rms_current
                                                   oled_rms_voltage
    -------------------------------------------------------------------------
DATA20_C
  Relative segment, address: 98C4 - 98C7 (0x4 bytes), align: 0
  Segment part 27.            Intra module refs:   oled_power_factor
                                                   oled_rms_current
                                                   oled_rms_voltage
    -------------------------------------------------------------------------
DATA20_C
  Relative segment, address: 98C8 - 98D1 (0xa bytes), align: 0
  Segment part 28.            Intra module refs:   oled_rms_voltage
    -------------------------------------------------------------------------
DATA20_C
  Relative segment, address: 98D2 - 98E7 (0x16 bytes), align: 0
  Segment part 29.            Intra module refs:   oled_rms_voltage
    -------------------------------------------------------------------------
DATA20_C
  Relative segment, address: 98E8 - 98EA (0x3 bytes), align: 0
  Segment part 30.            Intra module refs:   oled_rms_voltage
    -------------------------------------------------------------------------
DATA20_C
  Relative segment, address: 98EB - 9900 (0x16 bytes), align: 0
  Segment part 31.            Intra module refs:   oled_rms_voltage
    -------------------------------------------------------------------------
DATA20_C
  Relative segment, address: 9901 - 9916 (0x16 bytes), align: 0
  Segment part 32.            Intra module refs:   oled_rms_voltage
    -------------------------------------------------------------------------
DATA20_C
  Relative segment, address: 9917 - 991C (0x6 bytes), align: 0
  Segment part 33.            Intra module refs:   oled_rms_current
    -------------------------------------------------------------------------
DATA20_C
  Relative segment, address: 991D - 9932 (0x16 bytes), align: 0
  Segment part 34.            Intra module refs:   oled_rms_current
    -------------------------------------------------------------------------
DATA20_C
  Relative segment, address: 9933 - 9935 (0x3 bytes), align: 0
  Segment part 35.            Intra module refs:   oled_rms_current
    -------------------------------------------------------------------------
DATA20_C
  Relative segment, address: 9936 - 994B (0x16 bytes), align: 0
  Segment part 36.            Intra module refs:   oled_rms_current
    -------------------------------------------------------------------------
DATA20_C
  Relative segment, address: 994C - 9961 (0x16 bytes), align: 0
  Segment part 37.            Intra module refs:   oled_rms_current
    -------------------------------------------------------------------------
DATA20_C
  Relative segment, address: 9962 - 996C (0xb bytes), align: 0
  Segment part 38.            Intra module refs:   oled_mains_frequency
    -------------------------------------------------------------------------
DATA20_C
  Relative segment, address: 996D - 9971 (0x5 bytes), align: 0
  Segment part 39.            Intra module refs:   oled_imported_active_energy
                                                   oled_mains_frequency
    -------------------------------------------------------------------------
DATA20_C
  Relative segment, address: 9972 - 9975 (0x4 bytes), align: 0
  Segment part 40.            Intra module refs:   oled_mains_frequency
    -------------------------------------------------------------------------
DATA20_C
  Relative segment, address: 9976 - 997A (0x5 bytes), align: 0
  Segment part 41.            Intra module refs:   oled_imported_active_energy
                                                   oled_mains_frequency
    -------------------------------------------------------------------------
DATA20_C
  Relative segment, address: 997B - 997F (0x5 bytes), align: 0
  Segment part 42.            Intra module refs:   oled_imported_active_energy
                                                   oled_mains_frequency
    -------------------------------------------------------------------------
DATA20_C
  Relative segment, address: 9980 - 9983 (0x4 bytes), align: 0
  Segment part 43.            Intra module refs:   oled_imported_active_energy
    -------------------------------------------------------------------------
DATA20_C
  Relative segment, address: 9984 - 9991 (0xe bytes), align: 0
  Segment part 44.            Intra module refs:   oled_imported_active_energy
    -------------------------------------------------------------------------
DATA20_C
  Relative segment, address: 9992 - 99A1 (0x10 bytes), align: 0
  Segment part 45.            Intra module refs:   oled_imported_reactive_energy
    -------------------------------------------------------------------------
DATA20_C
  Relative segment, address: 99A2 - 99AA (0x9 bytes), align: 0
  Segment part 46.            Intra module refs:   oled_imported_reactive_energy
    -------------------------------------------------------------------------
DATA20_C
  Relative segment, address: 99AB - 99B2 (0x8 bytes), align: 0
  Segment part 47.            Intra module refs:   update_oled
    -------------------------------------------------------------------------
DATA20_C
  Relative segment, address: 99B3 - 99B6 (0x4 bytes), align: 0
  Segment part 48.            Intra module refs:   update_oled

    *************************************************************************

  FILE NAME : C:\Projetos\Ztec\Source\emeter-app\emeter-app-67641\Debug\Obj\emeter-communication.r43
  PROGRAM MODULE, NAME : emeter-communication

  SEGMENTS IN THE MODULE
  ======================
DATA16_AN
  Relative segment, address: 0222 - 0223 (0x2 bytes), align: 0
  Segment part 1. ROOT        Intra module refs:   RS485_sendBuf
                                                   USCI_A0_isr
                                                   main (emeter-main)
                                                   reactive_energy_pulse_end (emeter-main)
                                                   reactive_energy_pulse_start (emeter-main)
                                                   system_setup (emeter-setup)
           ENTRY                   ADDRESS         REF BY
           =====                   =======         ======
           _A_PBOUT_L              0222 
           LOCAL                   ADDRESS         
           =====                   =======         
           PBOUT                   0222 
           PBOUT_H                 0223 
           PBOUT_L                 0222 
    -------------------------------------------------------------------------
DATA16_AN
  Relative segment, address: 05C0 - 05C1 (0x2 bytes), align: 0
  Segment part 2. ROOT        Intra module refs:   serial_configure
           ENTRY                   ADDRESS         REF BY
           =====                   =======         ======
           _A_UCA0CTLW0_L          05C0 
           LOCAL                   ADDRESS         
           =====                   =======         
           UCA0CTLW0               05C0 
           UCA0CTLW0_H             05C1 
           UCA0CTLW0_L             05C0 
    -------------------------------------------------------------------------
DATA16_AN
  Relative segment, address: 05C2 - 05C3 (0x2 bytes), align: 0
  Segment part 3. ROOT        Intra module refs:   serial_configure
           ENTRY                   ADDRESS         REF BY
           =====                   =======         ======
           _A_UCA0CTLW1_L          05C2 
           LOCAL                   ADDRESS         
           =====                   =======         
           UCA0CTLW1               05C2 
           UCA0CTLW1_H             05C3 
           UCA0CTLW1_L             05C2 
    -------------------------------------------------------------------------
DATA16_AN
  Relative segment, address: 05C6 - 05C7 (0x2 bytes), align: 0
  Segment part 4. ROOT        Intra module refs:   serial_configure
           ENTRY                   ADDRESS         REF BY
           =====                   =======         ======
           _A_UCA0BRW_L            05C6 
           LOCAL                   ADDRESS         
           =====                   =======         
           UCA0BRW                 05C6 
           UCA0BRW_H               05C7 
           UCA0BRW_L               05C6 
    -------------------------------------------------------------------------
DATA16_AN
  Relative segment, address: 05C8 - 05C9 (0x2 bytes), align: 0
  Segment part 5. ROOT        Intra module refs:   serial_configure
           ENTRY                   ADDRESS         REF BY
           =====                   =======         ======
           _A_UCA0MCTLW_L          05C8 
           LOCAL                   ADDRESS         
           =====                   =======         
           UCA0MCTLW               05C8 
           UCA0MCTLW_H             05C9 
           UCA0MCTLW_L             05C8 
    -------------------------------------------------------------------------
DATA16_AN
  Relative segment, address: 05CC - 05CD (0x2 bytes), align: 0
  Segment part 6. ROOT        Intra module refs:   USCI_A0_isr
           ENTRY                   ADDRESS         REF BY
           =====                   =======         ======
           _A_UCA0RXBUF_L          05CC 
           LOCAL                   ADDRESS         
           =====                   =======         
           UCA0RXBUF               05CC 
           UCA0RXBUF_H             05CD 
           UCA0RXBUF_L             05CC 
    -------------------------------------------------------------------------
DATA16_AN
  Relative segment, address: 05CE - 05CF (0x2 bytes), align: 0
  Segment part 7. ROOT        Intra module refs:   serial_configure
                                                   serial_write
           ENTRY                   ADDRESS         REF BY
           =====                   =======         ======
           _A_UCA0TXBUF_L          05CE 
           LOCAL                   ADDRESS         
           =====                   =======         
           UCA0TXBUF               05CE 
           UCA0TXBUF_H             05CF 
           UCA0TXBUF_L             05CE 
    -------------------------------------------------------------------------
DATA16_AN
  Relative segment, address: 05DA - 05DB (0x2 bytes), align: 0
  Segment part 8. ROOT        Intra module refs:   serial_configure
           ENTRY                   ADDRESS         REF BY
           =====                   =======         ======
           _A_UCA0IE_L             05DA 
           LOCAL                   ADDRESS         
           =====                   =======         
           UCA0IE                  05DA 
           UCA0IE_H                05DB 
           UCA0IE_L                05DA 
    -------------------------------------------------------------------------
DATA16_AN
  Relative segment, address: 05DC - 05DD (0x2 bytes), align: 0
  Segment part 9. ROOT        Intra module refs:   RS485_sendBuf
                                                   USCI_A0_isr
                                                   serial_write
           ENTRY                   ADDRESS         REF BY
           =====                   =======         ======
           _A_UCA0IFG_L            05DC 
           LOCAL                   ADDRESS         
           =====                   =======         
           UCA0IFG                 05DC 
           UCA0IFG_H               05DD 
           UCA0IFG_L               05DC 
    -------------------------------------------------------------------------
DATA16_AN
  Relative segment, address: 05DE - 05DF (0x2 bytes), align: 0
  Segment part 10. ROOT       Intra module refs:   USCI_A0_isr
           ENTRY                   ADDRESS         REF BY
           =====                   =======         ======
           UCA0IV                  05DE 
    -------------------------------------------------------------------------
DATA16_AN
  Relative segment, address: 05E0 - 05E1 (0x2 bytes), align: 0
  Segment part 11. ROOT       Intra module refs:   serial_configure
           ENTRY                   ADDRESS         REF BY
           =====                   =======         ======
           _A_UCA1CTLW0_L          05E0 
           LOCAL                   ADDRESS         
           =====                   =======         
           UCA1CTLW0               05E0 
           UCA1CTLW0_H             05E1 
           UCA1CTLW0_L             05E0 
    -------------------------------------------------------------------------
DATA16_AN
  Relative segment, address: 05E2 - 05E3 (0x2 bytes), align: 0
  Segment part 12. ROOT       Intra module refs:   serial_configure
           ENTRY                   ADDRESS         REF BY
           =====                   =======         ======
           _A_UCA1CTLW1_L          05E2 
           LOCAL                   ADDRESS         
           =====                   =======         
           UCA1CTLW1               05E2 
           UCA1CTLW1_H             05E3 
           UCA1CTLW1_L             05E2 
    -------------------------------------------------------------------------
DATA16_AN
  Relative segment, address: 05E6 - 05E7 (0x2 bytes), align: 0
  Segment part 13. ROOT       Intra module refs:   serial_configure
           ENTRY                   ADDRESS         REF BY
           =====                   =======         ======
           _A_UCA1BRW_L            05E6 
           LOCAL                   ADDRESS         
           =====                   =======         
           UCA1BRW                 05E6 
           UCA1BRW_H               05E7 
           UCA1BRW_L               05E6 
    -------------------------------------------------------------------------
DATA16_AN
  Relative segment, address: 05E8 - 05E9 (0x2 bytes), align: 0
  Segment part 14. ROOT       Intra module refs:   serial_configure
           ENTRY                   ADDRESS         REF BY
           =====                   =======         ======
           _A_UCA1MCTLW_L          05E8 
           LOCAL                   ADDRESS         
           =====                   =======         
           UCA1MCTLW               05E8 
           UCA1MCTLW_H             05E9 
           UCA1MCTLW_L             05E8 
    -------------------------------------------------------------------------
DATA16_AN
  Relative segment, address: 05EC - 05ED (0x2 bytes), align: 0
  Segment part 15. ROOT       Intra module refs:   USCI_A1_isr
           ENTRY                   ADDRESS         REF BY
           =====                   =======         ======
           _A_UCA1RXBUF_L          05EC 
           LOCAL                   ADDRESS         
           =====                   =======         
           UCA1RXBUF               05EC 
           UCA1RXBUF_H             05ED 
           UCA1RXBUF_L             05EC 
    -------------------------------------------------------------------------
DATA16_AN
  Relative segment, address: 05EE - 05EF (0x2 bytes), align: 0
  Segment part 16. ROOT       Intra module refs:   serial_configure
                                                   serial_write
           ENTRY                   ADDRESS         REF BY
           =====                   =======         ======
           _A_UCA1TXBUF_L          05EE 
           LOCAL                   ADDRESS         
           =====                   =======         
           UCA1TXBUF               05EE 
           UCA1TXBUF_H             05EF 
           UCA1TXBUF_L             05EE 
    -------------------------------------------------------------------------
DATA16_AN
  Relative segment, address: 05FA - 05FB (0x2 bytes), align: 0
  Segment part 17. ROOT       Intra module refs:   serial_configure
           ENTRY                   ADDRESS         REF BY
           =====                   =======         ======
           _A_UCA1IE_L             05FA 
           LOCAL                   ADDRESS         
           =====                   =======         
           UCA1IE                  05FA 
           UCA1IE_H                05FB 
           UCA1IE_L                05FA 
    -------------------------------------------------------------------------
DATA16_AN
  Relative segment, address: 05FC - 05FD (0x2 bytes), align: 0
  Segment part 18. ROOT       Intra module refs:   USCI_A1_isr
                                                   serial_write
           ENTRY                   ADDRESS         REF BY
           =====                   =======         ======
           _A_UCA1IFG_L            05FC 
           LOCAL                   ADDRESS         
           =====                   =======         
           UCA1IFG                 05FC 
           UCA1IFG_H               05FD 
           UCA1IFG_L               05FC 
    -------------------------------------------------------------------------
DATA16_AN
  Relative segment, address: 05FE - 05FF (0x2 bytes), align: 0
  Segment part 19. ROOT       Intra module refs:   USCI_A1_isr
           ENTRY                   ADDRESS         REF BY
           =====                   =======         ======
           UCA1IV                  05FE 
    -------------------------------------------------------------------------
DATA16_AN
  Relative segment, address: 0600 - 0601 (0x2 bytes), align: 0
  Segment part 20. ROOT       Intra module refs:   IHD430_UART_configure
           ENTRY                   ADDRESS         REF BY
           =====                   =======         ======
           _A_UCA2CTLW0_L          0600 
           LOCAL                   ADDRESS         
           =====                   =======         
           UCA2CTLW0               0600 
           UCA2CTLW0_H             0601 
           UCA2CTLW0_L             0600 
    -------------------------------------------------------------------------
DATA16_AN
  Relative segment, address: 0606 - 0607 (0x2 bytes), align: 0
  Segment part 21. ROOT       Intra module refs:   IHD430_UART_configure
           ENTRY                   ADDRESS         REF BY
           =====                   =======         ======
           _A_UCA2BRW_L            0606 
           LOCAL                   ADDRESS         
           =====                   =======         
           UCA2BRW                 0606 
           UCA2BRW_H               0607 
           UCA2BRW_L               0606 
    -------------------------------------------------------------------------
DATA16_AN
  Relative segment, address: 0608 - 0609 (0x2 bytes), align: 0
  Segment part 22. ROOT       Intra module refs:   IHD430_UART_configure
           ENTRY                   ADDRESS         REF BY
           =====                   =======         ======
           _A_UCA2MCTLW_L          0608 
           LOCAL                   ADDRESS         
           =====                   =======         
           UCA2MCTLW               0608 
           UCA2MCTLW_H             0609 
           UCA2MCTLW_L             0608 
    -------------------------------------------------------------------------
DATA16_AN
  Relative segment, address: 060E - 060F (0x2 bytes), align: 0
  Segment part 23. ROOT       Intra module refs:   send_reading_to_CC2530_for_IHD430
           ENTRY                   ADDRESS         REF BY
           =====                   =======         ======
           _A_UCA2TXBUF_L          060E 
           LOCAL                   ADDRESS         
           =====                   =======         
           UCA2TXBUF               060E 
           UCA2TXBUF_H             060F 
           UCA2TXBUF_L             060E 
    -------------------------------------------------------------------------
DATA16_AN
  Relative segment, address: 061C - 061D (0x2 bytes), align: 0
  Segment part 24. ROOT       Intra module refs:   send_reading_to_CC2530_for_IHD430
           ENTRY                   ADDRESS         REF BY
           =====                   =======         ======
           _A_UCA2IFG_L            061C 
           LOCAL                   ADDRESS         
           =====                   =======         
           UCA2IFG                 061C 
           UCA2IFG_H               061D 
           UCA2IFG_L               061C 
    -------------------------------------------------------------------------
DATA20_Z
  Relative segment, address: 1C14 - 1D77 (0x164 bytes), align: 1
  Segment part 28.            Intra module refs:   ?Subroutine0
                                                   ?Subroutine1
                                                   ?Subroutine2
                                                   ?Subroutine3
                                                   RS485_sendBuf
                                                   USCI_A0_isr
                                                   USCI_A1_isr
                                                   serial_configure
                                                   serial_write
           ENTRY                   ADDRESS         REF BY
           =====                   =======         ======
           ports                   1C14            dlt645_service (emeter-dlt645)
                                                   process_preset_single_reg (emeter-dlt645)
                                                   process_read_inp_reg (emeter-dlt645)
    -------------------------------------------------------------------------
DATA20_C
  Relative segment, address: 99B7 - 99BE (0x8 bytes), align: 0
  Segment part 29.            Intra module refs:   serial_configure
           LOCAL                   ADDRESS         
           =====                   =======         
           mod_patterns            99B7 
    -------------------------------------------------------------------------
<CODE> 1 (was CODE)
  Relative segment, address: 6076 - 6229 (0x1b4 bytes), align: 1
  Segment part 32.
           ENTRY                   ADDRESS         REF BY
           =====                   =======         ======
           serial_configure        6076            system_setup (emeter-setup)
               calls direct
    -------------------------------------------------------------------------
<CODE> 1 (was CODE)
  Relative segment, address: 7C8E - 7CFB (0x6e bytes), align: 1
  Segment part 33.            Intra module refs:   RS485_sendBuf
           ENTRY                   ADDRESS         REF BY
           =====                   =======         ======
           serial_write            7C8E 
    -------------------------------------------------------------------------
<CODE> 1 (was CODE)
  Relative segment, address: 859A - 85D9 (0x40 bytes), align: 1
  Segment part 34.
           ENTRY                   ADDRESS         REF BY
           =====                   =======         ======
           RS485_sendBuf           859A            process_preset_single_reg (emeter-dlt645)
                                                   process_read_inp_reg (emeter-dlt645)
               calls direct
    -------------------------------------------------------------------------
ISR_CODE
  Relative segment, address: 4030 - 40F3 (0xc4 bytes), align: 1
  Segment part 39.            Intra module refs:   USCI_A0_isr::??INTVEC 118
           ENTRY                   ADDRESS         REF BY
           =====                   =======         ======
           USCI_A0_isr             4030 
               interrupt function
               calls direct
    -------------------------------------------------------------------------
ISR_CODE
  Relative segment, address: 40F4 - 40FD (0xa bytes), align: 1
  Segment part 40.            Intra module refs:   USCI_A0_isr
           LOCAL                   ADDRESS         
           =====                   =======         
           ?Subroutine0            40F4 
    -------------------------------------------------------------------------
ISR_CODE
  Relative segment, address: 40FE - 410B (0xe bytes), align: 1
  Segment part 41.            Intra module refs:   ?Subroutine0
                                                   USCI_A0_isr
           LOCAL                   ADDRESS         
           =====                   =======         
           ?Subroutine2            40FE 
    -------------------------------------------------------------------------
ISR_CODE
  Relative segment, address: 410C - 41B3 (0xa8 bytes), align: 1
  Segment part 42.            Intra module refs:   USCI_A1_isr::??INTVEC 106
           ENTRY                   ADDRESS         REF BY
           =====                   =======         ======
           USCI_A1_isr             410C 
               interrupt function
               calls direct
    -------------------------------------------------------------------------
ISR_CODE
  Relative segment, address: 41B4 - 41BD (0xa bytes), align: 1
  Segment part 43.            Intra module refs:   USCI_A1_isr
           LOCAL                   ADDRESS         
           =====                   =======         
           ?Subroutine1            41B4 
    -------------------------------------------------------------------------
ISR_CODE
  Relative segment, address: 41BE - 41CB (0xe bytes), align: 1
  Segment part 44.            Intra module refs:   ?Subroutine1
                                                   USCI_A1_isr
           LOCAL                   ADDRESS         
           =====                   =======         
           ?Subroutine3            41BE 
    -------------------------------------------------------------------------
<CODE> 1 (was CODE)
  Relative segment, address: 80E4 - 813F (0x5c bytes), align: 1
  Segment part 37.
           ENTRY                   ADDRESS         REF BY
           =====                   =======         ======
           send_reading_to_CC2530_for_IHD430
                                   80E4            main (emeter-main)
    -------------------------------------------------------------------------
DATA20_I
  Relative segment, address: 1C02 - 1C12 (0x11 bytes), align: 0
  Segment part 30.            Intra module refs:   send_reading_to_CC2530_for_IHD430
           LOCAL                   ADDRESS         
           =====                   =======         
           send_reading_to_CC2530_for_IHD430::RF_Tx
                                   1C02 
    -------------------------------------------------------------------------
<CODE> 1 (was CODE)
  Relative segment, address: 8E62 - 8E7D (0x1c bytes), align: 1
  Segment part 38.
           ENTRY                   ADDRESS         REF BY
           =====                   =======         ======
           IHD430_UART_configure   8E62            system_setup (emeter-setup)
    -------------------------------------------------------------------------
INTVEC
  Common segment, address: FF80 - FFEB (0x6c bytes), align: 1
  Segment part 25. ROOT 
           ENTRY                   ADDRESS         REF BY
           =====                   =======         ======
           USCI_A1_isr::??INTVEC 106
                                   FFEA 
    -------------------------------------------------------------------------
INTVEC
  Common segment, address: FF80 - FFF7 (0x78 bytes), align: 1
  Segment part 26. ROOT 
           ENTRY                   ADDRESS         REF BY
           =====                   =======         ======
           USCI_A0_isr::??INTVEC 118
                                   FFF6 
    -------------------------------------------------------------------------
DATA20_ID
  Relative segment, address: 9C22 - 9C32 (0x11 bytes), align: 0
  Segment part 31.            Intra module refs:   send_reading_to_CC2530_for_IHD430::RF_Tx

    *************************************************************************

  FILE NAME : C:\Projetos\Ztec\Source\emeter-app\emeter-app-67641\Debug\Obj\emeter-dlt645.r43
  PROGRAM MODULE, NAME : emeter-dlt645

  SEGMENTS IN THE MODULE
  ======================
<CODE> 1 (was CODE)
  Relative segment, address: 8838 - 886B (0x34 bytes), align: 1
  Segment part 2.             Intra module refs:   dlt645_service
                                                   process_read_inp_reg
           ENTRY                   ADDRESS         REF BY
           =====                   =======         ======
           CalculateCRC            8838 
    -------------------------------------------------------------------------
<CODE> 1 (was CODE)
  Relative segment, address: 7E9C - 7EFF (0x64 bytes), align: 1
  Segment part 3.             Intra module refs:   process_read_inp_reg
           LOCAL                   ADDRESS         
           =====                   =======         
           get_ptr_from_input_register_addr
                                   7E9C 
    -------------------------------------------------------------------------
<CODE> 1 (was CODE)
  Relative segment, address: 6F5C - 703D (0xe2 bytes), align: 1
  Segment part 4.             Intra module refs:   dlt645_service
           ENTRY                   ADDRESS         REF BY
           =====                   =======         ======
           process_preset_single_reg
                                   6F5C 
               calls direct
    -------------------------------------------------------------------------
<CODE> 1 (was CODE)
  Relative segment, address: 772A - 77C3 (0x9a bytes), align: 1
  Segment part 5.             Intra module refs:   dlt645_service
           ENTRY                   ADDRESS         REF BY
           =====                   =======         ======
           process_read_inp_reg    772A 
               calls direct
    -------------------------------------------------------------------------
<CODE> 1 (was CODE)
  Relative segment, address: 6C6A - 6D67 (0xfe bytes), align: 1
  Segment part 6.
           ENTRY                   ADDRESS         REF BY
           =====                   =======         ======
           dlt645_service          6C6A            main (emeter-main)
               calls direct

    *************************************************************************

  FILE NAME : C:\Projetos\Ztec\Source\emeter-app\emeter-app-67641\Debug\Obj\emeter-keypad.r43
    *************************************************************************

  FILE NAME : C:\Projetos\Ztec\Source\emeter-app\emeter-app-67641\Debug\Obj\emeter-lcd.r43
  PROGRAM MODULE, NAME : emeter-lcd

  SEGMENTS IN THE MODULE
  ======================
DATA16_AN
  Relative segment, address: 0A00 - 0A01 (0x2 bytes), align: 0
  Segment part 1. ROOT 
           ENTRY                   ADDRESS         REF BY
           =====                   =======         ======
           _A_LCDCCTL0_L           0A00 
           LOCAL                   ADDRESS         
           =====                   =======         
           LCDCCTL0                0A00 
           LCDCCTL0_H              0A01 
           LCDCCTL0_L              0A00 
    -------------------------------------------------------------------------
DATA16_AN
  Relative segment, address: 0A02 - 0A03 (0x2 bytes), align: 0
  Segment part 2. ROOT 
           ENTRY                   ADDRESS         REF BY
           =====                   =======         ======
           _A_LCDCCTL1_L           0A02 
           LOCAL                   ADDRESS         
           =====                   =======         
           LCDCCTL1                0A02 
           LCDCCTL1_H              0A03 
           LCDCCTL1_L              0A02 
    -------------------------------------------------------------------------
DATA16_AN
  Relative segment, address: 0A04 - 0A05 (0x2 bytes), align: 0
  Segment part 3. ROOT 
           ENTRY                   ADDRESS         REF BY
           =====                   =======         ======
           _A_LCDCBLKCTL_L         0A04 
           LOCAL                   ADDRESS         
           =====                   =======         
           LCDCBLKCTL              0A04 
           LCDCBLKCTL_H            0A05 
           LCDCBLKCTL_L            0A04 
    -------------------------------------------------------------------------
DATA16_AN
  Relative segment, address: 0A06 - 0A07 (0x2 bytes), align: 0
  Segment part 4. ROOT 
           ENTRY                   ADDRESS         REF BY
           =====                   =======         ======
           _A_LCDCMEMCTL_L         0A06 
           LOCAL                   ADDRESS         
           =====                   =======         
           LCDCMEMCTL              0A06 
           LCDCMEMCTL_H            0A07 
           LCDCMEMCTL_L            0A06 
    -------------------------------------------------------------------------
DATA16_AN
  Relative segment, address: 0A08 - 0A09 (0x2 bytes), align: 0
  Segment part 5. ROOT 
           ENTRY                   ADDRESS         REF BY
           =====                   =======         ======
           _A_LCDCVCTL_L           0A08 
           LOCAL                   ADDRESS         
           =====                   =======         
           LCDCVCTL                0A08 
           LCDCVCTL_H              0A09 
           LCDCVCTL_L              0A08 
    -------------------------------------------------------------------------
DATA16_AN
  Relative segment, address: 0A0A - 0A0B (0x2 bytes), align: 0
  Segment part 6. ROOT 
           ENTRY                   ADDRESS         REF BY
           =====                   =======         ======
           _A_LCDCPCTL0_L          0A0A 
           LOCAL                   ADDRESS         
           =====                   =======         
           LCDCPCTL0               0A0A 
           LCDCPCTL0_H             0A0B 
           LCDCPCTL0_L             0A0A 
    -------------------------------------------------------------------------
DATA16_AN
  Relative segment, address: 0A0C - 0A0D (0x2 bytes), align: 0
  Segment part 7. ROOT 
           ENTRY                   ADDRESS         REF BY
           =====                   =======         ======
           _A_LCDCPCTL1_L          0A0C 
           LOCAL                   ADDRESS         
           =====                   =======         
           LCDCPCTL1               0A0C 
           LCDCPCTL1_H             0A0D 
           LCDCPCTL1_L             0A0C 
    -------------------------------------------------------------------------
DATA16_AN
  Relative segment, address: 0A0E - 0A0F (0x2 bytes), align: 0
  Segment part 8. ROOT 
           ENTRY                   ADDRESS         REF BY
           =====                   =======         ======
           _A_LCDCPCTL2_L          0A0E 
           LOCAL                   ADDRESS         
           =====                   =======         
           LCDCPCTL2               0A0E 
           LCDCPCTL2_H             0A0F 
           LCDCPCTL2_L             0A0E 
    -------------------------------------------------------------------------
DATA16_AN
  Relative segment, address: 0A12 - 0A13 (0x2 bytes), align: 0
  Segment part 9. ROOT 
           ENTRY                   ADDRESS         REF BY
           =====                   =======         ======
           _A_LCDCCPCTL_L          0A12 
           LOCAL                   ADDRESS         
           =====                   =======         
           LCDCCPCTL               0A12 
           LCDCCPCTL_H             0A13 
           LCDCCPCTL_L             0A12 
    -------------------------------------------------------------------------
DATA16_AN
  Relative segment, address: 0A20 - 0A20 (0x1 bytes), align: 0
  Segment part 10. ROOT 
           ENTRY                   ADDRESS         REF BY
           =====                   =======         ======
           LCDM1                   0A20 

    *************************************************************************

  FILE NAME : C:\Projetos\Ztec\Source\emeter-app\emeter-app-67641\Debug\Obj\emeter-main.r43
  PROGRAM MODULE, NAME : emeter-main

  SEGMENTS IN THE MODULE
  ======================
DATA16_AN
  Relative segment, address: 0200 - 0201 (0x2 bytes), align: 0
  Segment part 1. ROOT        Intra module refs:   main
           ENTRY                   ADDRESS         REF BY
           =====                   =======         ======
           _A_PAIN_L               0200 
           LOCAL                   ADDRESS         
           =====                   =======         
           PAIN                    0200 
           PAIN_H                  0201 
           PAIN_L                  0200 
    -------------------------------------------------------------------------
DATA16_AN
  Relative segment, address: 0262 - 0263 (0x2 bytes), align: 0
  Segment part 3. ROOT        Intra module refs:   main
                                                   system_setup (emeter-setup)
           ENTRY                   ADDRESS         REF BY
           =====                   =======         ======
           _A_PDOUT_L              0262 
           LOCAL                   ADDRESS         
           =====                   =======         
           PDOUT                   0262 
           PDOUT_H                 0263 
           PDOUT_L                 0262 
    -------------------------------------------------------------------------
DATA16_AN
  Relative segment, address: 015C - 015D (0x2 bytes), align: 0
  Segment part 4. ROOT        Intra module refs:   ISR_trap
                                                   main
                                                   rtc_isr (emeter-rtc-c)
                                                   system_setup (emeter-setup)
           ENTRY                   ADDRESS         REF BY
           =====                   =======         ======
           _A_WDTCTL_L             015C 
           LOCAL                   ADDRESS         
           =====                   =======         
           WDTCTL                  015C 
           WDTCTL_H                015D 
           WDTCTL_L                015C 
    -------------------------------------------------------------------------
DATA20_Z
  Relative segment, address: 1D78 - 1D79 (0x2 bytes), align: 1
  Segment part 20.            Intra module refs:   main
           ENTRY                   ADDRESS         REF BY
           =====                   =======         ======
           ModoDisplay             1D78 
    -------------------------------------------------------------------------
DATA20_Z
  Relative segment, address: 1D7A - 1D7D (0x4 bytes), align: 1
  Segment part 21.            Intra module refs:   main
           ENTRY                   ADDRESS         REF BY
           =====                   =======         ======
           Contador4096            1D7A            adc_interrupt (metrology-background)
                                                   dlt645_service (emeter-dlt645)
    -------------------------------------------------------------------------
DATA20_Z
  Relative segment, address: 1D7E - 1D81 (0x4 bytes), align: 1
  Segment part 22.            Intra module refs:   main
           ENTRY                   ADDRESS         REF BY
           =====                   =======         ======
           TempoBotao              1D7E 
    -------------------------------------------------------------------------
DATA20_Z
  Relative segment, address: 1D82 - 1D85 (0x4 bytes), align: 1
  Segment part 23.            Intra module refs:   main
           ENTRY                   ADDRESS         REF BY
           =====                   =======         ======
           TempoDisplayOled        1D82 
    -------------------------------------------------------------------------
DATA20_Z
  Relative segment, address: 1D86 - 1D89 (0x4 bytes), align: 1
  Segment part 24.            Intra module refs:   main
           ENTRY                   ADDRESS         REF BY
           =====                   =======         ======
           TempoMapaMemoria        1D86 
    -------------------------------------------------------------------------
DATA20_Z
  Relative segment, address: 1D8A - 1E89 (0x100 bytes), align: 1
  Segment part 25.            Intra module refs:   energy_update
                                                   update_input_registers
           ENTRY                   ADDRESS         REF BY
           =====                   =======         ======
           energy_consumed         1D8A            oled_imported_active_energy (emeter-basic-oled)
                                                   oled_imported_reactive_energy (emeter-basic-oled)
    -------------------------------------------------------------------------
DATA20_Z
  Relative segment, address: 1E8A - 1E8F (0x6 bytes), align: 1
  Segment part 26.            Intra module refs:   sag_swell_event
           ENTRY                   ADDRESS         REF BY
           =====                   =======         ======
           sag_events              1E8A 
    -------------------------------------------------------------------------
DATA20_Z
  Relative segment, address: 1E90 - 1E9B (0xc bytes), align: 1
  Segment part 27.            Intra module refs:   sag_swell_event
           ENTRY                   ADDRESS         REF BY
           =====                   =======         ======
           sag_duration            1E90 
    -------------------------------------------------------------------------
DATA20_Z
  Relative segment, address: 1E9C - 1EA1 (0x6 bytes), align: 1
  Segment part 28.            Intra module refs:   sag_swell_event
           ENTRY                   ADDRESS         REF BY
           =====                   =======         ======
           swell_events            1E9C 
    -------------------------------------------------------------------------
DATA20_Z
  Relative segment, address: 1EA2 - 1EAD (0xc bytes), align: 1
  Segment part 29.            Intra module refs:   sag_swell_event
           ENTRY                   ADDRESS         REF BY
           =====                   =======         ======
           swell_duration          1EA2 
    -------------------------------------------------------------------------
<CODE> 1 (was CODE)
  Relative segment, address: 570E - 57E7 (0xda bytes), align: 1
  Segment part 33.            Intra module refs:   update_input_registers
           LOCAL                   ADDRESS         
           =====                   =======         
           check_voltage_ranges    570E 
               calls direct
    -------------------------------------------------------------------------
<CODE> 1 (was CODE)
  Relative segment, address: 57E8 - 57EF (0x8 bytes), align: 1
  Segment part 34.            Intra module refs:   check_voltage_ranges
                                                   update_input_registers
           LOCAL                   ADDRESS         
           =====                   =======         
           ?Subroutine0            57E8 
    -------------------------------------------------------------------------
<CODE> 1 (was CODE)
  Relative segment, address: 57F0 - 57F9 (0xa bytes), align: 1
  Segment part 35.            Intra module refs:   check_voltage_ranges
           LOCAL                   ADDRESS         
           =====                   =======         
           ?Subroutine3            57F0 
    -------------------------------------------------------------------------
<CODE> 1 (was CODE)
  Relative segment, address: 57FA - 5805 (0xc bytes), align: 1
  Segment part 36.            Intra module refs:   check_voltage_ranges
           LOCAL                   ADDRESS         
           =====                   =======         
           ?Subroutine1            57FA 
    -------------------------------------------------------------------------
<CODE> 1 (was CODE)
  Relative segment, address: 5806 - 5ACF (0x2ca bytes), align: 1
  Segment part 37.            Intra module refs:   main
           LOCAL                   ADDRESS         
           =====                   =======         
           update_input_registers
                                   5806 
               calls direct
    -------------------------------------------------------------------------
<CODE> 1 (was CODE)
  Relative segment, address: 9222 - 922D (0xc bytes), align: 1
  Segment part 38.            Intra module refs:   update_input_registers
           LOCAL                   ADDRESS         
           =====                   =======         
           ?Subroutine8            9222 
    -------------------------------------------------------------------------
<CODE> 1 (was CODE)
  Relative segment, address: 8A20 - 8A25 (0x6 bytes), align: 1
  Segment part 39.            Intra module refs:   update_input_registers
           LOCAL                   ADDRESS         
           =====                   =======         
           ?Subroutine7            8A20 
    -------------------------------------------------------------------------
<CODE> 1 (was CODE)
  Relative segment, address: 8A26 - 8A2D (0x8 bytes), align: 1
  Segment part 40.            Intra module refs:   update_input_registers
           LOCAL                   ADDRESS         
           =====                   =======         
           ?Subroutine6            8A26 
    -------------------------------------------------------------------------
<CODE> 1 (was CODE)
  Relative segment, address: 8A2E - 8A31 (0x4 bytes), align: 1
  Segment part 41.            Intra module refs:   update_input_registers
           LOCAL                   ADDRESS         
           =====                   =======         
           ?Subroutine5            8A2E 
    -------------------------------------------------------------------------
<CODE> 1 (was CODE)
  Relative segment, address: 8A32 - 8A37 (0x6 bytes), align: 1
  Segment part 42.            Intra module refs:   ?Subroutine2
                                                   ?Subroutine5
                                                   update_input_registers
           LOCAL                   ADDRESS         
           =====                   =======         
           ?Subroutine11           8A32 
    -------------------------------------------------------------------------
<CODE> 1 (was CODE)
  Relative segment, address: 8A38 - 8A3B (0x4 bytes), align: 1
  Segment part 43.            Intra module refs:   update_input_registers
           LOCAL                   ADDRESS         
           =====                   =======         
           ?Subroutine4            8A38 
    -------------------------------------------------------------------------
<CODE> 1 (was CODE)
  Relative segment, address: 8A3C - 8A47 (0xc bytes), align: 1
  Segment part 44.            Intra module refs:   ?Subroutine4
                                                   ?Subroutine7
           LOCAL                   ADDRESS         
           =====                   =======         
           ?Subroutine10           8A3C 
    -------------------------------------------------------------------------
<CODE> 1 (was CODE)
  Relative segment, address: 8A48 - 8A4D (0x6 bytes), align: 1
  Segment part 45.            Intra module refs:   update_input_registers
           LOCAL                   ADDRESS         
           =====                   =======         
           ?Subroutine2            8A48 
    -------------------------------------------------------------------------
DATA20_Z
  Relative segment, address: 1EAE - 1FF5 (0x148 bytes), align: 1
  Segment part 30.            Intra module refs:   main
           ENTRY                   ADDRESS         REF BY
           =====                   =======         ======
           input_registers         1EAE            get_ptr_from_input_register_addr (emeter-dlt645)
    -------------------------------------------------------------------------
<CODE> 1 (was CODE)
  Relative segment, address: 5EC2 - 6075 (0x1b4 bytes), align: 1
  Segment part 46.
           ENTRY                   ADDRESS         REF BY
           =====                   =======         ======
           main                    5EC2            Segment part 27 (?cstart)
               calls direct
    -------------------------------------------------------------------------
<CODE> 1 (was CODE)
  Relative segment, address: 918A - 918B (0x2 bytes), align: 1
  Segment part 47.            Intra module refs:   main
           LOCAL                   ADDRESS         
           =====                   =======         
           ?Subroutine9            918A 
    -------------------------------------------------------------------------
<CODE> 1 (was CODE)
  Relative segment, address: 918C - 9197 (0xc bytes), align: 1
  Segment part 48.            Intra module refs:   ?Subroutine9
                                                   main
    -------------------------------------------------------------------------
DATA20_Z
  Relative segment, address: 1FF6 - 1FF9 (0x4 bytes), align: 1
  Segment part 31.            Intra module refs:   main
           LOCAL                   ADDRESS         
           =====                   =======         
           main::x                 1FF6 
    -------------------------------------------------------------------------
<CODE> 1 (was CODE)
  Relative segment, address: 9328 - 9329 (0x2 bytes), align: 1
  Segment part 49.
           ENTRY                   ADDRESS         REF BY
           =====                   =======         ======
           switch_to_normal_mode   9328            metrology_switch_to_normal_mode (metrology-setup)
    -------------------------------------------------------------------------
<CODE> 1 (was CODE)
  Relative segment, address: 932C - 932D (0x2 bytes), align: 1
  Segment part 51.
           ENTRY                   ADDRESS         REF BY
           =====                   =======         ======
           active_energy_pulse_start
                                   932C            per_sample_energy_pulse_processing (metrology-background)
    -------------------------------------------------------------------------
<CODE> 1 (was CODE)
  Relative segment, address: 932A - 932B (0x2 bytes), align: 1
  Segment part 52.
           ENTRY                   ADDRESS         REF BY
           =====                   =======         ======
           active_energy_pulse_end
                                   932A            per_sample_energy_pulse_processing (metrology-background)
                                                   system_setup (emeter-setup)
    -------------------------------------------------------------------------
<CODE> 1 (was CODE)
  Relative segment, address: 929A - 92A5 (0xc bytes), align: 1
  Segment part 53.
           ENTRY                   ADDRESS         REF BY
           =====                   =======         ======
           reactive_energy_pulse_start
                                   929A            per_sample_energy_pulse_processing (metrology-background)
    -------------------------------------------------------------------------
<CODE> 1 (was CODE)
  Relative segment, address: 926A - 9275 (0xc bytes), align: 1
  Segment part 54.
           ENTRY                   ADDRESS         REF BY
           =====                   =======         ======
           reactive_energy_pulse_end
                                   926A            per_sample_energy_pulse_processing (metrology-background)
                                                   system_setup (emeter-setup)
    -------------------------------------------------------------------------
<CODE> 1 (was CODE)
  Relative segment, address: 83E8 - 8437 (0x50 bytes), align: 1
  Segment part 55.
           ENTRY                   ADDRESS         REF BY
           =====                   =======         ======
           energy_update           83E8            ?Subroutine10 (metrology-foreground)
                                                   ?Subroutine11 (metrology-foreground)
               calls direct
    -------------------------------------------------------------------------
DATA20_C
  Relative segment, address: 932E - 934D (0x20 bytes), align: 1
  Segment part 32.            Intra module refs:   energy_update
           LOCAL                   ADDRESS         
           =====                   =======         
           energy_update::map      932E 
    -------------------------------------------------------------------------
<CODE> 1 (was CODE)
  Relative segment, address: 8086 - 80E3 (0x5e bytes), align: 1
  Segment part 56.
           ENTRY                   ADDRESS         REF BY
           =====                   =======         ======
           sag_swell_event         8086            per_sample_dsp (metrology-background)
    -------------------------------------------------------------------------
ISR_CODE
  Relative segment, address: 41CC - 41D1 (0x6 bytes), align: 1
  Segment part 58.            Intra module refs:   ISR_trap::??INTVEC 104
                                                   ISR_trap::??INTVEC 108
                                                   ISR_trap::??INTVEC 116
                                                   ISR_trap::??INTVEC 122
                                                   ISR_trap::??INTVEC 124
                                                   ISR_trap::??INTVEC 82
                                                   ISR_trap::??INTVEC 84
                                                   ISR_trap::??INTVEC 86
                                                   ISR_trap::??INTVEC 88
                                                   ISR_trap::??INTVEC 90
                                                   ISR_trap::??INTVEC 92
                                                   ISR_trap::??INTVEC 94
                                                   ISR_trap::??INTVEC 96
                                                   ISR_trap::??INTVEC 98
           ENTRY                   ADDRESS         REF BY
           =====                   =======         ======
           ISR_trap                41CC 
               interrupt function
    -------------------------------------------------------------------------
INTVEC
  Common segment, address: FF80 - FFD3 (0x54 bytes), align: 1
  Segment part 5. ROOT 
           ENTRY                   ADDRESS         REF BY
           =====                   =======         ======
           ISR_trap::??INTVEC 82   FFD2 
    -------------------------------------------------------------------------
INTVEC
  Common segment, address: FF80 - FFD5 (0x56 bytes), align: 1
  Segment part 6. ROOT 
           ENTRY                   ADDRESS         REF BY
           =====                   =======         ======
           ISR_trap::??INTVEC 84   FFD4 
    -------------------------------------------------------------------------
INTVEC
  Common segment, address: FF80 - FFD7 (0x58 bytes), align: 1
  Segment part 7. ROOT 
           ENTRY                   ADDRESS         REF BY
           =====                   =======         ======
           ISR_trap::??INTVEC 86   FFD6 
    -------------------------------------------------------------------------
INTVEC
  Common segment, address: FF80 - FFD9 (0x5a bytes), align: 1
  Segment part 8. ROOT 
           ENTRY                   ADDRESS         REF BY
           =====                   =======         ======
           ISR_trap::??INTVEC 88   FFD8 
    -------------------------------------------------------------------------
INTVEC
  Common segment, address: FF80 - FFDB (0x5c bytes), align: 1
  Segment part 9. ROOT 
           ENTRY                   ADDRESS         REF BY
           =====                   =======         ======
           ISR_trap::??INTVEC 90   FFDA 
    -------------------------------------------------------------------------
INTVEC
  Common segment, address: FF80 - FFDD (0x5e bytes), align: 1
  Segment part 10. ROOT 
           ENTRY                   ADDRESS         REF BY
           =====                   =======         ======
           ISR_trap::??INTVEC 92   FFDC 
    -------------------------------------------------------------------------
INTVEC
  Common segment, address: FF80 - FFDF (0x60 bytes), align: 1
  Segment part 11. ROOT 
           ENTRY                   ADDRESS         REF BY
           =====                   =======         ======
           ISR_trap::??INTVEC 94   FFDE 
    -------------------------------------------------------------------------
INTVEC
  Common segment, address: FF80 - FFE1 (0x62 bytes), align: 1
  Segment part 12. ROOT 
           ENTRY                   ADDRESS         REF BY
           =====                   =======         ======
           ISR_trap::??INTVEC 96   FFE0 
    -------------------------------------------------------------------------
INTVEC
  Common segment, address: FF80 - FFE3 (0x64 bytes), align: 1
  Segment part 13. ROOT 
           ENTRY                   ADDRESS         REF BY
           =====                   =======         ======
           ISR_trap::??INTVEC 98   FFE2 
    -------------------------------------------------------------------------
INTVEC
  Common segment, address: FF80 - FFE9 (0x6a bytes), align: 1
  Segment part 14. ROOT 
           ENTRY                   ADDRESS         REF BY
           =====                   =======         ======
           ISR_trap::??INTVEC 104
                                   FFE8 
    -------------------------------------------------------------------------
INTVEC
  Common segment, address: FF80 - FFED (0x6e bytes), align: 1
  Segment part 15. ROOT 
           ENTRY                   ADDRESS         REF BY
           =====                   =======         ======
           ISR_trap::??INTVEC 108
                                   FFEC 
    -------------------------------------------------------------------------
INTVEC
  Common segment, address: FF80 - FFF5 (0x76 bytes), align: 1
  Segment part 16. ROOT 
           ENTRY                   ADDRESS         REF BY
           =====                   =======         ======
           ISR_trap::??INTVEC 116
                                   FFF4 
    -------------------------------------------------------------------------
INTVEC
  Common segment, address: FF80 - FFFB (0x7c bytes), align: 1
  Segment part 17. ROOT 
           ENTRY                   ADDRESS         REF BY
           =====                   =======         ======
           ISR_trap::??INTVEC 122
                                   FFFA 
    -------------------------------------------------------------------------
INTVEC
  Common segment, address: FF80 - FFFD (0x7e bytes), align: 1
  Segment part 18. ROOT 
           ENTRY                   ADDRESS         REF BY
           =====                   =======         ======
           ISR_trap::??INTVEC 124
                                   FFFC 

    *************************************************************************

  FILE NAME : C:\Projetos\Ztec\Source\emeter-metrology\emeter-metrology-67641\Debug\Exe\emeter-metrology-67641.r43
  PROGRAM MODULE, NAME : accum48

Absolute parts
           LOCAL                   ADDRESS         
           =====                   =======         
           __MSP430F6779__         0000 
           __MSP430_6779__         0000 
  SEGMENTS IN THE MODULE
  ======================
<CODE> 1 (was CODE)
  Relative segment, address: 865A - 8673 (0x1a bytes), align: 1
  Segment part 0. ROOT 
           ENTRY                   ADDRESS         REF BY
           =====                   =======         ======
           accum48                 865A 
    -------------------------------------------------------------------------
<CODE> 1 (was CODE)
  Relative segment, address: 8674 - 8685 (0x12 bytes), align: 1
  Segment part 1. ROOT 
           ENTRY                   ADDRESS         REF BY
           =====                   =======         ======
           accum48_48              8674            per_sample_dsp (metrology-background)
    -------------------------------------------------------------------------
<CODE> 1 (was CODE)
  Relative segment, address: 8686 - 8697 (0x12 bytes), align: 1
  Segment part 2. ROOT 
           ENTRY                   ADDRESS         REF BY
           =====                   =======         ======
           decum48_48              8686            per_sample_dsp (metrology-background)

    -------------------------------------------------------------------------
  PROGRAM MODULE, NAME : bin2bcd16

Absolute parts
           LOCAL                   ADDRESS         
           =====                   =======         
           __MSP430F6779__         0000 
           __MSP430_6779__         0000 
  SEGMENTS IN THE MODULE
  ======================
<CODE> 1 (was CODE)
  Relative segment, address: 8CD4 - 8CF9 (0x26 bytes), align: 1
  Segment part 0. ROOT 
           ENTRY                   ADDRESS         REF BY
           =====                   =======         ======
           bin2bcd16               8CD4 
           LOCAL                   ADDRESS         
           =====                   =======         
           bin2bcd16_1             8CDE 

    -------------------------------------------------------------------------
  PROGRAM MODULE, NAME : bin2bcd32

Absolute parts
           LOCAL                   ADDRESS         
           =====                   =======         
           __MSP430F6779__         0000 
           __MSP430_6779__         0000 
  SEGMENTS IN THE MODULE
  ======================
<CODE> 1 (was CODE)
  Relative segment, address: 8518 - 8559 (0x42 bytes), align: 1
  Segment part 0. ROOT 
           ENTRY                   ADDRESS         REF BY
           =====                   =======         ======
           bin2bcd32               8518 
           LOCAL                   ADDRESS         
           =====                   =======         
           bin2bcd32_1             8524 
           bin2bcd32_2             8532 

    -------------------------------------------------------------------------
  PROGRAM MODULE, NAME : bin2bcd64

Absolute parts
           LOCAL                   ADDRESS         
           =====                   =======         
           __MSP430F6779__         0000 
           __MSP430_6779__         0000 
  SEGMENTS IN THE MODULE
  ======================
<CODE> 1 (was CODE)
  Relative segment, address: 7A9C - 7B21 (0x86 bytes), align: 1
  Segment part 0. ROOT 
           ENTRY                   ADDRESS         REF BY
           =====                   =======         ======
           bin2bcd64               7A9C 
           LOCAL                   ADDRESS         
           =====                   =======         
           bin2bcd64_1             7AAC 
           bin2bcd64_2             7ABA 
           bin2bcd64_3             7ACA 
           bin2bcd64_4             7ADC 

    -------------------------------------------------------------------------
  PROGRAM MODULE, NAME : dc_filter16

Absolute parts
           LOCAL                   ADDRESS         
           =====                   =======         
           __MSP430F6779__         0000 
           __MSP430_6779__         0000 
  SEGMENTS IN THE MODULE
  ======================
<CODE> 1 (was CODE)
  Relative segment, address: 829E - 82C7 (0x2a bytes), align: 1
  Segment part 0. ROOT 
           ENTRY                   ADDRESS         REF BY
           =====                   =======         ======
           dc_filter16             829E            per_sample_dsp (metrology-background)
    -------------------------------------------------------------------------
<CODE> 1 (was CODE)
  Relative segment, address: 82C8 - 82CF (0x8 bytes), align: 1
  Segment part 1. ROOT 
           ENTRY                   ADDRESS         REF BY
           =====                   =======         ======
           dc_filter16_no_update   82C8 
    -------------------------------------------------------------------------
<CODE> 1 (was CODE)
  Relative segment, address: 82D0 - 82D9 (0xa bytes), align: 1
  Segment part 2. ROOT 
           ENTRY                   ADDRESS         REF BY
           =====                   =======         ======
           dc_filter16_init        82D0            metrology_init_from_nv_data (metrology-setup)
    -------------------------------------------------------------------------
<CODE> 1 (was CODE)
  Relative segment, address: 82DA - 82F1 (0x18 bytes), align: 1
  Segment part 3. ROOT 
           ENTRY                   ADDRESS         REF BY
           =====                   =======         ======
           dc_filter16_estimate    82DA            per_sample_dsp (metrology-background)

    -------------------------------------------------------------------------
  PROGRAM MODULE, NAME : dc_filter24

Absolute parts
           LOCAL                   ADDRESS         
           =====                   =======         
           __MSP430F6779__         0000 
           __MSP430_6779__         0000 
  SEGMENTS IN THE MODULE
  ======================
<CODE> 1 (was CODE)
  Relative segment, address: 7B22 - 7B5B (0x3a bytes), align: 1
  Segment part 0. ROOT 
           ENTRY                   ADDRESS         REF BY
           =====                   =======         ======
           dc_filter24             7B22            per_sample_dsp (metrology-background)
    -------------------------------------------------------------------------
<CODE> 1 (was CODE)
  Relative segment, address: 7B5C - 7B69 (0xe bytes), align: 1
  Segment part 1. ROOT 
           ENTRY                   ADDRESS         REF BY
           =====                   =======         ======
           dc_filter24_no_update   7B5C 
    -------------------------------------------------------------------------
<CODE> 1 (was CODE)
  Relative segment, address: 7B6A - 7B83 (0x1a bytes), align: 1
  Segment part 2. ROOT 
           ENTRY                   ADDRESS         REF BY
           =====                   =======         ======
           dc_filter24_init        7B6A            metrology_init_from_nv_data (metrology-setup)
    -------------------------------------------------------------------------
<CODE> 1 (was CODE)
  Relative segment, address: 7B84 - 7B9F (0x1c bytes), align: 1
  Segment part 3. ROOT 
           ENTRY                   ADDRESS         REF BY
           =====                   =======         ======
           dc_filter24_estimate    7B84            per_sample_dsp (metrology-background)

    -------------------------------------------------------------------------
  LIBRARY MODULE, NAME : div48

  SEGMENTS IN THE MODULE
  ======================
<CODE> 1 (was CODE)
  Relative segment, address: 824A - 829D (0x54 bytes), align: 1
  Segment part 2.
           ENTRY                   ADDRESS         REF BY
           =====                   =======         ======
           div48                   824A            evaluate_rms_voltage (metrology-foreground)
               calls direct

    -------------------------------------------------------------------------
  LIBRARY MODULE, NAME : hal_pmm

  SEGMENTS IN THE MODULE
  ======================
DATA16_AN
  Relative segment, address: 0126 - 0127 (0x2 bytes), align: 0
  Segment part 3. ROOT        Intra module refs:   SetVCoreDown
                                                   SetVCoreUp
           ENTRY                   ADDRESS         REF BY
           =====                   =======         ======
           _A_SVSMLCTL_L           0126 
           LOCAL                   ADDRESS         
           =====                   =======         
           SVSMLCTL                0126 
           SVSMLCTL_H              0127 
           SVSMLCTL_L              0126 
    -------------------------------------------------------------------------
DATA16_AN
  Relative segment, address: 012C - 012D (0x2 bytes), align: 0
  Segment part 4. ROOT        Intra module refs:   SetVCoreDown
                                                   SetVCoreUp
           ENTRY                   ADDRESS         REF BY
           =====                   =======         ======
           _A_PMMIFG_L             012C 
           LOCAL                   ADDRESS         
           =====                   =======         
           PMMIFG                  012C 
           PMMIFG_H                012D 
           PMMIFG_L                012C 
    -------------------------------------------------------------------------
DATA16_AN
  Relative segment, address: 012E - 012F (0x2 bytes), align: 0
  Segment part 5. ROOT        Intra module refs:   SetVCoreDown
                                                   SetVCoreUp
           ENTRY                   ADDRESS         REF BY
           =====                   =======         ======
           _A_PMMRIE_L             012E 
           LOCAL                   ADDRESS         
           =====                   =======         
           PMMRIE                  012E 
           PMMRIE_H                012F 
           PMMRIE_L                012E 
    -------------------------------------------------------------------------
<CODE> 1 (was CODE)
  Relative segment, address: 785A - 78EB (0x92 bytes), align: 1
  Segment part 7.             Intra module refs:   SetVCore
           ENTRY                   ADDRESS         REF BY
           =====                   =======         ======
           SetVCoreUp              785A 
    -------------------------------------------------------------------------
<CODE> 1 (was CODE)
  Relative segment, address: 92EC - 92F5 (0xa bytes), align: 1
  Segment part 10.            Intra module refs:   ?Subroutine2
                                                   SetVCoreUp
           LOCAL                   ADDRESS         
           =====                   =======         
           ?Subroutine3            92EC 
    -------------------------------------------------------------------------
<CODE> 1 (was CODE)
  Relative segment, address: 9114 - 9125 (0x12 bytes), align: 1
  Segment part 11.            Intra module refs:   SetVCoreDown
                                                   SetVCoreUp
           LOCAL                   ADDRESS         
           =====                   =======         
           ?Subroutine1            9114 
    -------------------------------------------------------------------------
<CODE> 1 (was CODE)
  Relative segment, address: 9024 - 9029 (0x6 bytes), align: 1
  Segment part 12.            Intra module refs:   SetVCoreDown
                                                   SetVCoreUp
           LOCAL                   ADDRESS         
           =====                   =======         
           ?Subroutine0            9024 
    -------------------------------------------------------------------------
<CODE> 1 (was CODE)
  Relative segment, address: 902A - 9039 (0x10 bytes), align: 1
  Segment part 13.            Intra module refs:   ?Subroutine0
                                                   SetVCoreUp
    -------------------------------------------------------------------------
<CODE> 1 (was CODE)
  Relative segment, address: 8140 - 819B (0x5c bytes), align: 1
  Segment part 8.             Intra module refs:   SetVCore
           ENTRY                   ADDRESS         REF BY
           =====                   =======         ======
           SetVCoreDown            8140 
    -------------------------------------------------------------------------
<CODE> 1 (was CODE)
  Relative segment, address: 9246 - 9251 (0xc bytes), align: 1
  Segment part 9.             Intra module refs:   SetVCoreDown
           LOCAL                   ADDRESS         
           =====                   =======         
           ?Subroutine2            9246 
    -------------------------------------------------------------------------
<CODE> 1 (was CODE)
  Relative segment, address: 8698 - 86D5 (0x3e bytes), align: 1
  Segment part 14.
           ENTRY                   ADDRESS         REF BY
           =====                   =======         ======
           SetVCore                8698            set_clock_slow (emeter-setup)
               calls direct

    -------------------------------------------------------------------------
  PROGRAM MODULE, NAME : imul16

Absolute parts
           LOCAL                   ADDRESS         
           =====                   =======         
           __MSP430F6779__         0000 
           __MSP430_6779__         0000 
  SEGMENTS IN THE MODULE
  ======================
<CODE> 1 (was CODE)
  Relative segment, address: 8ED2 - 8EEB (0x1a bytes), align: 1
  Segment part 0. ROOT 
           ENTRY                   ADDRESS         REF BY
           =====                   =======         ======
           imul16                  8ED2 

    -------------------------------------------------------------------------
  PROGRAM MODULE, NAME : imul16u

Absolute parts
           LOCAL                   ADDRESS         
           =====                   =======         
           __MSP430F6779__         0000 
           __MSP430_6779__         0000 
  SEGMENTS IN THE MODULE
  ======================
<CODE> 1 (was CODE)
  Relative segment, address: 8F06 - 8F1F (0x1a bytes), align: 1
  Segment part 0. ROOT 
           ENTRY                   ADDRESS         REF BY
           =====                   =======         ======
           imul16u                 8F06 

    -------------------------------------------------------------------------
  PROGRAM MODULE, NAME : isqrt16

Absolute parts
           LOCAL                   ADDRESS         
           =====                   =======         
           __MSP430F6779__         0000 
           __MSP430_6779__         0000 
  SEGMENTS IN THE MODULE
  ======================
<CODE> 1 (was CODE)
  Relative segment, address: 8BCA - 8BEF (0x26 bytes), align: 1
  Segment part 0. ROOT 
           ENTRY                   ADDRESS         REF BY
           =====                   =======         ======
           isqrt16                 8BCA 
           LOCAL                   ADDRESS         
           =====                   =======         
           isqrt16_1               8BD2 
           isqrt16_2               8BDE 

    -------------------------------------------------------------------------
  PROGRAM MODULE, NAME : isqrt32

Absolute parts
           LOCAL                   ADDRESS         
           =====                   =======         
           __MSP430F6779__         0000 
           __MSP430_6779__         0000 
  SEGMENTS IN THE MODULE
  ======================
<CODE> 1 (was CODE)
  Relative segment, address: 7F64 - 7FC5 (0x62 bytes), align: 1
  Segment part 0. ROOT 
           ENTRY                   ADDRESS         REF BY
           =====                   =======         ======
           isqrt32                 7F64            evaluate_rms_voltage (metrology-foreground)
           LOCAL                   ADDRESS         
           =====                   =======         
           isqrt32_1               7F72 
           isqrt32_2               7F84 
           isqrt32_3               7F9E 
           isqrt32_4               7FB0 

    -------------------------------------------------------------------------
  PROGRAM MODULE, NAME : isqrt64

Absolute parts
           LOCAL                   ADDRESS         
           =====                   =======         
           __MSP430F6779__         0000 
           __MSP430_6779__         0000 
  SEGMENTS IN THE MODULE
  ======================
<CODE> 1 (was CODE)
  Relative segment, address: 7400 - 74A7 (0xa8 bytes), align: 1
  Segment part 0. ROOT 
           ENTRY                   ADDRESS         REF BY
           =====                   =======         ======
           isqrt64                 7400            evaluate_rms_current (metrology-foreground)
                                                   isqrt64i (isqrt64i)
           LOCAL                   ADDRESS         
           =====                   =======         
           isqrt64_1               7418 
           isqrt64_2               7436 
           isqrt64_3               7464 
           isqrt64_4               7482 

    -------------------------------------------------------------------------
  LIBRARY MODULE, NAME : isqrt64i

  SEGMENTS IN THE MODULE
  ======================
<CODE> 1 (was CODE)
  Relative segment, address: 8E9A - 8EAF (0x16 bytes), align: 1
  Segment part 2.
           ENTRY                   ADDRESS         REF BY
           =====                   =======         ======
           isqrt64i                8E9A            calculate_phase_readings (metrology-foreground)
               calls direct
    -------------------------------------------------------------------------
<CODE> 1 (was CODE)
  Relative segment, address: 8EB0 - 8EB5 (0x6 bytes), align: 1
  Segment part 3.             Intra module refs:   isqrt64i
           LOCAL                   ADDRESS         
           =====                   =======         
           ?Subroutine0            8EB0 

    -------------------------------------------------------------------------
  PROGRAM MODULE, NAME : mac48

Absolute parts
           LOCAL                   ADDRESS         
           =====                   =======         
           __MSP430F6779__         0000 
           __MSP430_6779__         0000 
  SEGMENTS IN THE MODULE
  ======================
<CODE> 1 (was CODE)
  Relative segment, address: 8F20 - 8F39 (0x1a bytes), align: 1
  Segment part 0. ROOT 
           ENTRY                   ADDRESS         REF BY
           =====                   =======         ======
           mac48_16                8F20 

    -------------------------------------------------------------------------
  PROGRAM MODULE, NAME : mac64_16_24

Absolute parts
           LOCAL                   ADDRESS         
           =====                   =======         
           __MSP430F6779__         0000 
           __MSP430_6779__         0000 
  SEGMENTS IN THE MODULE
  ======================
<CODE> 1 (was CODE)
  Relative segment, address: 8C16 - 8C3B (0x26 bytes), align: 1
  Segment part 0. ROOT 
           ENTRY                   ADDRESS         REF BY
           =====                   =======         ======
           mac64_16_24             8C16 
           LOCAL                   ADDRESS         
           =====                   =======         
           __MSP430_HAS_MPY__      8C16 
           __TOOLKIT_USE_SOFT_MPY__
                                   8C16 

    -------------------------------------------------------------------------
  PROGRAM MODULE, NAME : mul48_32_16

Absolute parts
           LOCAL                   ADDRESS         
           =====                   =======         
           __MSP430F6779__         0000 
           __MSP430_6779__         0000 
  SEGMENTS IN THE MODULE
  ======================
<CODE> 1 (was CODE)
  Relative segment, address: 8CAE - 8CD3 (0x26 bytes), align: 1
  Segment part 0. ROOT 
           ENTRY                   ADDRESS         REF BY
           =====                   =======         ======
           mul48_32_16             8CAE 
           LOCAL                   ADDRESS         
           =====                   =======         
           __MSP430_HAS_MPY__      8CAE 
           __TOOLKIT_USE_SOFT_MPY__
                                   8CAE 

    -------------------------------------------------------------------------
  PROGRAM MODULE, NAME : mul48u_32_16

Absolute parts
           LOCAL                   ADDRESS         
           =====                   =======         
           __MSP430F6779__         0000 
           __MSP430_6779__         0000 
  SEGMENTS IN THE MODULE
  ======================
<CODE> 1 (was CODE)
  Relative segment, address: 8D88 - 8DA9 (0x22 bytes), align: 1
  Segment part 0. ROOT 
           ENTRY                   ADDRESS         REF BY
           =====                   =======         ======
           mul48u_32_16            8D88 
           LOCAL                   ADDRESS         
           =====                   =======         
           __MSP430_HAS_MPY__      8D88 
           __TOOLKIT_USE_SOFT_MPY__
                                   8D88 

    -------------------------------------------------------------------------
  PROGRAM MODULE, NAME : q1_15_mul

Absolute parts
           LOCAL                   ADDRESS         
           =====                   =======         
           __MSP430F6779__         0000 
           __MSP430_6779__         0000 
  SEGMENTS IN THE MODULE
  ======================
<CODE> 1 (was CODE)
  Relative segment, address: 8DCA - 8DE9 (0x20 bytes), align: 1
  Segment part 0. ROOT 
           ENTRY                   ADDRESS         REF BY
           =====                   =======         ======
           q1_15_mul               8DCA 

    -------------------------------------------------------------------------
  PROGRAM MODULE, NAME : q1_15_mulr

Absolute parts
           LOCAL                   ADDRESS         
           =====                   =======         
           __MSP430F6779__         0000 
           __MSP430_6779__         0000 
  SEGMENTS IN THE MODULE
  ======================
<CODE> 1 (was CODE)
  Relative segment, address: 8C62 - 8C87 (0x26 bytes), align: 1
  Segment part 0. ROOT 
           ENTRY                   ADDRESS         REF BY
           =====                   =======         ======
           q1_15_mulr              8C62 

    -------------------------------------------------------------------------
  PROGRAM MODULE, NAME : shift48

Absolute parts
           LOCAL                   ADDRESS         
           =====                   =======         
           __MSP430F6779__         0000 
           __MSP430_6779__         0000 
  SEGMENTS IN THE MODULE
  ======================
<CODE> 1 (was CODE)
  Relative segment, address: 8A4E - 8A79 (0x2c bytes), align: 1
  Segment part 0. ROOT 
           ENTRY                   ADDRESS         REF BY
           =====                   =======         ======
           shift48                 8A4E 
           LOCAL                   ADDRESS         
           =====                   =======         
           shift48_1               8A68 
           shift48_3               8A6A 
           shift48_2               8A54 

    -------------------------------------------------------------------------
  PROGRAM MODULE, NAME : sqac48_16

Absolute parts
           LOCAL                   ADDRESS         
           =====                   =======         
           __MSP430F6779__         0000 
           __MSP430_6779__         0000 
  SEGMENTS IN THE MODULE
  ======================
<CODE> 1 (was CODE)
  Relative segment, address: 8F54 - 8F6D (0x1a bytes), align: 1
  Segment part 0. ROOT 
           ENTRY                   ADDRESS         REF BY
           =====                   =======         ======
           sqac48_16               8F54            per_sample_dsp (metrology-background)

    -------------------------------------------------------------------------
  PROGRAM MODULE, NAME : sqac64_24

Absolute parts
           LOCAL                   ADDRESS         
           =====                   =======         
           __MSP430F6779__         0000 
           __MSP430_6779__         0000 
  SEGMENTS IN THE MODULE
  ======================
<CODE> 1 (was CODE)
  Relative segment, address: 8BF0 - 8C15 (0x26 bytes), align: 1
  Segment part 0. ROOT 
           ENTRY                   ADDRESS         REF BY
           =====                   =======         ======
           sqac64_24               8BF0 
           LOCAL                   ADDRESS         
           =====                   =======         
           __MSP430_HAS_MPY__      8BF0 
           __TOOLKIT_USE_SOFT_MPY__
                                   8BF0 

    -------------------------------------------------------------------------
  LIBRARY MODULE, NAME : metrology-background

  SEGMENTS IN THE MODULE
  ======================
DATA16_AN
  Relative segment, address: 0740 - 0741 (0x2 bytes), align: 0
  Segment part 1. ROOT        Intra module refs:   adc10_interrupt
                                                   dma_interrupt
                                                   metrology_disable_analog_front_end (metrology-setup)
                                                   metrology_init_analog_front_end_normal_mode (metrology-setup)
           ENTRY                   ADDRESS         REF BY
           =====                   =======         ======
           _A_ADC10CTL0_L          0740 
           LOCAL                   ADDRESS         
           =====                   =======         
           ADC10CTL0               0740 
           ADC10CTL0_H             0741 
           ADC10CTL0_L             0740 
    -------------------------------------------------------------------------
DATA16_AN
  Relative segment, address: 0742 - 0743 (0x2 bytes), align: 0
  Segment part 2. ROOT        Intra module refs:   adc10_interrupt
                                                   dma_interrupt
                                                   metrology_disable_analog_front_end (metrology-setup)
                                                   metrology_init_analog_front_end_normal_mode (metrology-setup)
           ENTRY                   ADDRESS         REF BY
           =====                   =======         ======
           _A_ADC10CTL1_L          0742 
           LOCAL                   ADDRESS         
           =====                   =======         
           ADC10CTL1               0742 
           ADC10CTL1_H             0743 
           ADC10CTL1_L             0742 
    -------------------------------------------------------------------------
DATA16_AN
  Relative segment, address: 0744 - 0745 (0x2 bytes), align: 0
  Segment part 3. ROOT        Intra module refs:   adc10_interrupt
                                                   dma_interrupt
                                                   metrology_init_analog_front_end_normal_mode (metrology-setup)
           ENTRY                   ADDRESS         REF BY
           =====                   =======         ======
           _A_ADC10CTL2_L          0744 
           LOCAL                   ADDRESS         
           =====                   =======         
           ADC10CTL2               0744 
           ADC10CTL2_H             0745 
           ADC10CTL2_L             0744 
    -------------------------------------------------------------------------
DATA16_AN
  Relative segment, address: 074A - 074B (0x2 bytes), align: 0
  Segment part 4. ROOT        Intra module refs:   adc10_interrupt
                                                   dma_interrupt
                                                   metrology_init_analog_front_end_normal_mode (metrology-setup)
           ENTRY                   ADDRESS         REF BY
           =====                   =======         ======
           _A_ADC10MCTL0_L         074A 
           LOCAL                   ADDRESS         
           =====                   =======         
           ADC10MCTL0              074A 
           ADC10MCTL0_H            074B 
           ADC10MCTL0_L            074A 
    -------------------------------------------------------------------------
DATA16_AN
  Relative segment, address: 0752 - 0753 (0x2 bytes), align: 0
  Segment part 5. ROOT        Intra module refs:   adc10_interrupt
                                                   metrology_init_analog_front_end_normal_mode (metrology-setup)
           ENTRY                   ADDRESS         REF BY
           =====                   =======         ======
           _A_ADC10MEM0_L          0752 
           LOCAL                   ADDRESS         
           =====                   =======         
           ADC10MEM0               0752 
           ADC10MEM0_H             0753 
           ADC10MEM0_L             0752 
    -------------------------------------------------------------------------
DATA16_AN
  Relative segment, address: 075A - 075B (0x2 bytes), align: 0
  Segment part 6. ROOT        Intra module refs:   adc10_interrupt
                                                   dma_interrupt
           ENTRY                   ADDRESS         REF BY
           =====                   =======         ======
           _A_ADC10IE_L            075A 
           LOCAL                   ADDRESS         
           =====                   =======         
           ADC10IE                 075A 
           ADC10IE_H               075B 
           ADC10IE_L               075A 
    -------------------------------------------------------------------------
DATA16_AN
  Relative segment, address: 075C - 075D (0x2 bytes), align: 0
  Segment part 7. ROOT        Intra module refs:   adc10_interrupt
                                                   metrology_init_analog_front_end_normal_mode (metrology-setup)
           ENTRY                   ADDRESS         REF BY
           =====                   =======         ======
           _A_ADC10IFG_L           075C 
           LOCAL                   ADDRESS         
           =====                   =======         
           ADC10IFG                075C 
           ADC10IFG_H              075D 
           ADC10IFG_L              075C 
    -------------------------------------------------------------------------
DATA16_AN
  Relative segment, address: 050E - 050F (0x2 bytes), align: 0
  Segment part 8. ROOT        Intra module refs:   dma_interrupt
           ENTRY                   ADDRESS         REF BY
           =====                   =======         ======
           _A_DMAIV_L              050E 
           LOCAL                   ADDRESS         
           =====                   =======         
           DMAIV                   050E 
           DMAIV_H                 050F 
           DMAIV_L                 050E 
    -------------------------------------------------------------------------
DATA16_AN
  Relative segment, address: 0510 - 0511 (0x2 bytes), align: 0
  Segment part 9. ROOT        Intra module refs:   dma_interrupt
           ENTRY                   ADDRESS         REF BY
           =====                   =======         ======
           _A_DMA0CTL_L            0510 
           LOCAL                   ADDRESS         
           =====                   =======         
           DMA0CTL                 0510 
           DMA0CTL_H               0511 
           DMA0CTL_L               0510 
    -------------------------------------------------------------------------
DATA16_AN
  Relative segment, address: 0520 - 0521 (0x2 bytes), align: 0
  Segment part 10. ROOT       Intra module refs:   dma_interrupt
                                                   metrology_disable_analog_front_end (metrology-setup)
                                                   metrology_init_analog_front_end_normal_mode (metrology-setup)
           ENTRY                   ADDRESS         REF BY
           =====                   =======         ======
           _A_DMA1CTL_L            0520 
           LOCAL                   ADDRESS         
           =====                   =======         
           DMA1CTL                 0520 
           DMA1CTL_H               0521 
           DMA1CTL_L               0520 
    -------------------------------------------------------------------------
DATA16_AN
  Relative segment, address: 0530 - 0531 (0x2 bytes), align: 0
  Segment part 11. ROOT       Intra module refs:   dma_interrupt
           ENTRY                   ADDRESS         REF BY
           =====                   =======         ======
           _A_DMA2CTL_L            0530 
           LOCAL                   ADDRESS         
           =====                   =======         
           DMA2CTL                 0530 
           DMA2CTL_H               0531 
           DMA2CTL_L               0530 
    -------------------------------------------------------------------------
DATA16_AN
  Relative segment, address: 04C2 - 04C3 (0x2 bytes), align: 0
  Segment part 12. ROOT       Intra module refs:   per_sample_dsp
           ENTRY                   ADDRESS         REF BY
           =====                   =======         ======
           _A_MPYS_L               04C2 
           LOCAL                   ADDRESS         
           =====                   =======         
           MPYS                    04C2 
           MPYS_H                  04C3 
           MPYS_L                  04C2 
    -------------------------------------------------------------------------
DATA16_AN
  Relative segment, address: 0804 - 0805 (0x2 bytes), align: 0
  Segment part 14. ROOT       Intra module refs:   adc_interrupt
                                                   metrology_init_analog_front_end_normal_mode (metrology-setup)
           ENTRY                   ADDRESS         REF BY
           =====                   =======         ======
           _A_SD24BTRGCTL_L        0804 
           LOCAL                   ADDRESS         
           =====                   =======         
           SD24BTRGCTL             0804 
           SD24BTRGCTL_H           0805 
           SD24BTRGCTL_L           0804 
    -------------------------------------------------------------------------
DATA16_AN
  Relative segment, address: 080A - 080B (0x2 bytes), align: 0
  Segment part 15. ROOT       Intra module refs:   adc_interrupt
           ENTRY                   ADDRESS         REF BY
           =====                   =======         ======
           _A_SD24BIFG_L           080A 
           LOCAL                   ADDRESS         
           =====                   =======         
           SD24BIFG                080A 
           SD24BIFG_H              080B 
           SD24BIFG_L              080A 
    -------------------------------------------------------------------------
DATA16_AN
  Relative segment, address: 0850 - 0853 (0x4 bytes), align: 0
  Segment part 19. ROOT       Intra module refs:   adc_interrupt
           ENTRY                   ADDRESS         REF BY
           =====                   =======         ======
           _A_SD24BMEM0_8          0850 
           LOCAL                   ADDRESS         
           =====                   =======         
           SD24BMEM0_16            0850 
           SD24BMEM0_32            0850 
           SD24BMEM0_8             0850 
    -------------------------------------------------------------------------
DATA16_AN
  Relative segment, address: 0854 - 0857 (0x4 bytes), align: 0
  Segment part 20. ROOT       Intra module refs:   adc_interrupt
           ENTRY                   ADDRESS         REF BY
           =====                   =======         ======
           _A_SD24BMEM1_8          0854 
           LOCAL                   ADDRESS         
           =====                   =======         
           SD24BMEM1_16            0854 
           SD24BMEM1_32            0854 
           SD24BMEM1_8             0854 
    -------------------------------------------------------------------------
DATA16_AN
  Relative segment, address: 0858 - 085B (0x4 bytes), align: 0
  Segment part 21. ROOT       Intra module refs:   adc_interrupt
           ENTRY                   ADDRESS         REF BY
           =====                   =======         ======
           _A_SD24BMEM2_8          0858 
           LOCAL                   ADDRESS         
           =====                   =======         
           SD24BMEM2_16            0858 
           SD24BMEM2_32            0858 
           SD24BMEM2_8             0858 
    -------------------------------------------------------------------------
DATA20_Z
  Relative segment, address: 1FFA - 1FFB (0x2 bytes), align: 1
  Segment part 26.            Intra module refs:   per_sample_dsp
           ENTRY                   ADDRESS         REF BY
           =====                   =======         ======
           samples_per_second      1FFA            metrology_switch_to_normal_mode (metrology-setup)
    -------------------------------------------------------------------------
DATA20_Z
  Relative segment, address: 242E - 2430 (0x3 bytes), align: 0
  Segment part 27.            Intra module refs:   per_sample_dsp
           ENTRY                   ADDRESS         REF BY
           =====                   =======         ======
           DetSeqFase              242E 
    -------------------------------------------------------------------------
DATA20_Z
  Relative segment, address: 1FFC - 1FFD (0x2 bytes), align: 1
  Segment part 28.            Intra module refs:   per_sample_dsp
           ENTRY                   ADDRESS         REF BY
           =====                   =======         ======
           ContSeqFase             1FFC 
    -------------------------------------------------------------------------
DATA20_Z
  Relative segment, address: 1FFE - 2001 (0x4 bytes), align: 1
  Segment part 29.            Intra module refs:   adc_interrupt
           ENTRY                   ADDRESS         REF BY
           =====                   =======         ======
           raw_temperature_from_adc
                                   1FFE            calculate_phase_readings (metrology-foreground)
    -------------------------------------------------------------------------
DATA20_Z
  Relative segment, address: 2002 - 2003 (0x2 bytes), align: 1
  Segment part 31.            Intra module refs:   adc_interrupt
           ENTRY                   ADDRESS         REF BY
           =====                   =======         ======
           vcc                     2002 
    -------------------------------------------------------------------------
DATA20_Z
  Relative segment, address: 2004 - 2005 (0x2 bytes), align: 1
  Segment part 32.            Intra module refs:   adc_interrupt
           ENTRY                   ADDRESS         REF BY
           =====                   =======         ======
           auxadc                  2004 
    -------------------------------------------------------------------------
DATA20_Z
  Relative segment, address: 2006 - 2025 (0x20 bytes), align: 1
  Segment part 33.            Intra module refs:   adc10_interrupt
                                                   adc_interrupt
           ENTRY                   ADDRESS         REF BY
           =====                   =======         ======
           dma_adc_buffer          2006            metrology_init_analog_front_end_normal_mode (metrology-setup)
    -------------------------------------------------------------------------
DATA20_Z
  Relative segment, address: 2026 - 202B (0x6 bytes), align: 1
  Segment part 34.            Intra module refs:   adc_interrupt
                                                   per_sample_dsp
           LOCAL                   ADDRESS         
           =====                   =======         
           adc_v_buffer            2026 
    -------------------------------------------------------------------------
DATA20_Z
  Relative segment, address: 202C - 2037 (0xc bytes), align: 1
  Segment part 35.            Intra module refs:   adc_interrupt
                                                   per_sample_dsp
           LOCAL                   ADDRESS         
           =====                   =======         
           adc_i_buffer            202C 
    -------------------------------------------------------------------------
<CODE> 1 (was CODE)
  Relative segment, address: 4C4C - 5257 (0x60c bytes), align: 1
  Segment part 37.            Intra module refs:   adc_interrupt
           LOCAL                   ADDRESS         
           =====                   =======         
           per_sample_dsp          4C4C 
               calls direct
    -------------------------------------------------------------------------
<CODE> 1 (was CODE)
  Relative segment, address: 622A - 63D7 (0x1ae bytes), align: 1
  Segment part 38.            Intra module refs:   adc_interrupt
           LOCAL                   ADDRESS         
           =====                   =======         
           per_sample_energy_pulse_processing
                                   622A 
               calls direct
    -------------------------------------------------------------------------
ISR_CODE
  Relative segment, address: 41D2 - 434D (0x17c bytes), align: 1
  Segment part 39.            Intra module refs:   adc_interrupt::??INTVEC 112
           ENTRY                   ADDRESS         REF BY
           =====                   =======         ======
           adc_interrupt           41D2 
               interrupt function
               calls direct
    -------------------------------------------------------------------------
ISR_CODE
  Relative segment, address: 434E - 437F (0x32 bytes), align: 1
  Segment part 40.            Intra module refs:   adc10_interrupt::??INTVEC 114
           ENTRY                   ADDRESS         REF BY
           =====                   =======         ======
           adc10_interrupt         434E 
               interrupt function
    -------------------------------------------------------------------------
ISR_CODE
  Relative segment, address: 4380 - 43CB (0x4c bytes), align: 1
  Segment part 41.            Intra module refs:   dma_interrupt::??INTVEC 100
           ENTRY                   ADDRESS         REF BY
           =====                   =======         ======
           dma_interrupt           4380 
               interrupt function
    -------------------------------------------------------------------------
INTVEC
  Common segment, address: FF80 - FFE5 (0x66 bytes), align: 1
  Segment part 22. ROOT 
           ENTRY                   ADDRESS         REF BY
           =====                   =======         ======
           dma_interrupt::??INTVEC 100
                                   FFE4 
    -------------------------------------------------------------------------
INTVEC
  Common segment, address: FF80 - FFF1 (0x72 bytes), align: 1
  Segment part 23. ROOT 
           ENTRY                   ADDRESS         REF BY
           =====                   =======         ======
           adc_interrupt::??INTVEC 112
                                   FFF0 
    -------------------------------------------------------------------------
INTVEC
  Common segment, address: FF80 - FFF3 (0x74 bytes), align: 1
  Segment part 24. ROOT 
           ENTRY                   ADDRESS         REF BY
           =====                   =======         ======
           adc10_interrupt::??INTVEC 114
                                   FFF2 

    -------------------------------------------------------------------------
  LIBRARY MODULE, NAME : metrology-calibration-defaults

  SEGMENTS IN THE MODULE
  ======================
INFO
  Relative segment, address: 1800 - 187F (0x80 bytes), align: 1
  Segment part 2.             Intra module refs:   clear_calibration_data
                                                   get_cal_info
                                                   get_cfg_info
                                                   get_cfg_mb_address
                                                   write_calibration_data
           ENTRY                   ADDRESS         REF BY
           =====                   =======         ======
           nv_parms                1800            calculate_phase_readings (metrology-foreground)
                                                   metrology_init (metrology-setup)
                                                   metrology_init_from_nv_data (metrology-setup)
                                                   metrology_switch_to_normal_mode (metrology-setup)
                                                   system_setup (emeter-setup)
    -------------------------------------------------------------------------
DATA20_C
  Relative segment, address: 934E - 938F (0x42 bytes), align: 1
  Segment part 3.
           ENTRY                   ADDRESS         REF BY
           =====                   =======         ======
           calibration_defaults    934E            metrology_init (metrology-setup)
    -------------------------------------------------------------------------
DATA20_C
  Relative segment, address: 9390 - 9393 (0x4 bytes), align: 1
  Segment part 4.
           ENTRY                   ADDRESS         REF BY
           =====                   =======         ======
           configuration_defaults
                                   9390            metrology_init (metrology-setup)
    -------------------------------------------------------------------------
<CODE> 1 (was CODE)
  Relative segment, address: 908C - 9093 (0x8 bytes), align: 1
  Segment part 7.
           ENTRY                   ADDRESS         REF BY
           =====                   =======         ======
           get_cfg_mb_address      908C            USCI_A0_isr (emeter-communication)
                                                   USCI_A1_isr (emeter-communication)
                                                   process_read_inp_reg (emeter-dlt645)
    -------------------------------------------------------------------------
<CODE> 1 (was CODE)
  Relative segment, address: 9094 - 909F (0xc bytes), align: 1
  Segment part 36.
           ENTRY                   ADDRESS         REF BY
           =====                   =======         ======
           clear_calibration_data
                                   9094            process_preset_single_reg (emeter-dlt645)
               calls direct
    -------------------------------------------------------------------------
<CODE> 1 (was CODE)
  Relative segment, address: 8C88 - 8CAD (0x26 bytes), align: 1
  Segment part 37.
           ENTRY                   ADDRESS         REF BY
           =====                   =======         ======
           write_calibration_data
                                   8C88            process_preset_single_reg (emeter-dlt645)
               calls direct
    -------------------------------------------------------------------------
<CODE> 1 (was CODE)
  Relative segment, address: 930E - 9313 (0x6 bytes), align: 1
  Segment part 38.
           ENTRY                   ADDRESS         REF BY
           =====                   =======         ======
           get_cal_info            930E            process_preset_single_reg (emeter-dlt645)
    -------------------------------------------------------------------------
<CODE> 1 (was CODE)
  Relative segment, address: 9314 - 9319 (0x6 bytes), align: 1
  Segment part 39.
           ENTRY                   ADDRESS         REF BY
           =====                   =======         ======
           get_cfg_info            9314            process_preset_single_reg (emeter-dlt645)

    -------------------------------------------------------------------------
  LIBRARY MODULE, NAME : metrology-fir-table

  SEGMENTS IN THE MODULE
  ======================
DATA20_C
  Relative segment, address: 9394 - 9793 (0x400 bytes), align: 1
  Segment part 2.
           ENTRY                   ADDRESS         REF BY
           =====                   =======         ======
           phase_shift_fir_coeffs
                                   9394            set_phase_correction (metrology-foreground)

    -------------------------------------------------------------------------
  LIBRARY MODULE, NAME : metrology-flash

  SEGMENTS IN THE MODULE
  ======================
DATA16_AN
  Relative segment, address: 0140 - 0141 (0x2 bytes), align: 0
  Segment part 1. ROOT        Intra module refs:   flash_clr
                                                   flash_memcpy
                                                   flash_secure
           ENTRY                   ADDRESS         REF BY
           =====                   =======         ======
           _A_FCTL1_L              0140 
           LOCAL                   ADDRESS         
           =====                   =======         
           FCTL1                   0140 
           FCTL1_H                 0141 
           FCTL1_L                 0140 
    -------------------------------------------------------------------------
DATA16_AN
  Relative segment, address: 0144 - 0145 (0x2 bytes), align: 0
  Segment part 2. ROOT        Intra module refs:   flash_clr
                                                   flash_memcpy
                                                   flash_secure
           ENTRY                   ADDRESS         REF BY
           =====                   =======         ======
           _A_FCTL3_L              0144 
           LOCAL                   ADDRESS         
           =====                   =======         
           FCTL3                   0144 
           FCTL3_H                 0145 
           FCTL3_L                 0144 
    -------------------------------------------------------------------------
<CODE> 1 (was CODE)
  Relative segment, address: 90DC - 90EF (0x14 bytes), align: 1
  Segment part 4.
           ENTRY                   ADDRESS         REF BY
           =====                   =======         ======
           flash_clr               90DC            clear_calibration_data (metrology-calibration-defaults)
    -------------------------------------------------------------------------
<CODE> 1 (was CODE)
  Relative segment, address: 9252 - 925D (0xc bytes), align: 1
  Segment part 6.             Intra module refs:   ?Subroutine0
                                                   flash_clr
           LOCAL                   ADDRESS         
           =====                   =======         
           ?Subroutine1            9252 
    -------------------------------------------------------------------------
<CODE> 1 (was CODE)
  Relative segment, address: 923A - 9245 (0xc bytes), align: 1
  Segment part 9.             Intra module refs:   flash_memcpy
           LOCAL                   ADDRESS         
           =====                   =======         
           ?Subroutine0            923A 
    -------------------------------------------------------------------------
<CODE> 1 (was CODE)
  Relative segment, address: 8FCC - 8FE1 (0x16 bytes), align: 1
  Segment part 10.
           ENTRY                   ADDRESS         REF BY
           =====                   =======         ======
           flash_memcpy            8FCC            metrology_init (metrology-setup)
                                                   write_calibration_data (metrology-calibration-defaults)
    -------------------------------------------------------------------------
<CODE> 1 (was CODE)
  Relative segment, address: 903A - 904F (0x16 bytes), align: 1
  Segment part 11.
           ENTRY                   ADDRESS         REF BY
           =====                   =======         ======
           flash_secure            903A            metrology_init (metrology-setup)
                                                   write_calibration_data (metrology-calibration-defaults)

    -------------------------------------------------------------------------
  LIBRARY MODULE, NAME : metrology-foreground

  SEGMENTS IN THE MODULE
  ======================
DATA16_AN
  Relative segment, address: 04C8 - 04C9 (0x2 bytes), align: 0
  Segment part 1. ROOT        Intra module refs:   mul48u_32_16
                                                   per_sample_dsp (metrology-background)
           ENTRY                   ADDRESS         REF BY
           =====                   =======         ======
           _A_OP2_L                04C8 
           LOCAL                   ADDRESS         
           =====                   =======         
           OP2                     04C8 
           OP2_H                   04C9 
           OP2_L                   04C8 
    -------------------------------------------------------------------------
DATA16_AN
  Relative segment, address: 0816 - 0817 (0x2 bytes), align: 0
  Segment part 2. ROOT        Intra module refs:   metrology_disable_analog_front_end (metrology-setup)
                                                   metrology_init_analog_front_end_normal_mode (metrology-setup)
                                                   set_sd_phase_correction::sd_locations
           ENTRY                   ADDRESS         REF BY
           =====                   =======         ======
           _A_SD24BPRE0_L          0816 
           LOCAL                   ADDRESS         
           =====                   =======         
           SD24BPRE0               0816 
           SD24BPRE0_H             0817 
           SD24BPRE0_L             0816 
    -------------------------------------------------------------------------
DATA16_AN
  Relative segment, address: 081E - 081F (0x2 bytes), align: 0
  Segment part 3. ROOT        Intra module refs:   metrology_disable_analog_front_end (metrology-setup)
                                                   metrology_init_analog_front_end_normal_mode (metrology-setup)
                                                   set_sd_phase_correction::sd_locations
           ENTRY                   ADDRESS         REF BY
           =====                   =======         ======
           _A_SD24BPRE1_L          081E 
           LOCAL                   ADDRESS         
           =====                   =======         
           SD24BPRE1               081E 
           SD24BPRE1_H             081F 
           SD24BPRE1_L             081E 
    -------------------------------------------------------------------------
DATA16_AN
  Relative segment, address: 0826 - 0827 (0x2 bytes), align: 0
  Segment part 4. ROOT        Intra module refs:   metrology_disable_analog_front_end (metrology-setup)
                                                   metrology_init_analog_front_end_normal_mode (metrology-setup)
                                                   set_sd_phase_correction::sd_locations
           ENTRY                   ADDRESS         REF BY
           =====                   =======         ======
           _A_SD24BPRE2_L          0826 
           LOCAL                   ADDRESS         
           =====                   =======         
           SD24BPRE2               0826 
           SD24BPRE2_H             0827 
           SD24BPRE2_L             0826 
    -------------------------------------------------------------------------
DATA16_AN
  Relative segment, address: 04D0 - 04D3 (0x4 bytes), align: 0
  Segment part 5. ROOT        Intra module refs:   mul48u_32_16
           ENTRY                   ADDRESS         REF BY
           =====                   =======         ======
           _A_MPY8                 04D0 
           LOCAL                   ADDRESS         
           =====                   =======         
           MPY16                   04D0 
           MPY32                   04D0 
           MPY8                    04D0 
    -------------------------------------------------------------------------
DATA16_AN
  Relative segment, address: 04D4 - 04D7 (0x4 bytes), align: 0
  Segment part 6. ROOT        Intra module refs:   mul48_32_16
                                                   per_sample_dsp (metrology-background)
           ENTRY                   ADDRESS         REF BY
           =====                   =======         ======
           _A_MPYS8                04D4 
           LOCAL                   ADDRESS         
           =====                   =======         
           MPYS16                  04D4 
           MPYS32                  04D4 
           MPYS8                   04D4 
    -------------------------------------------------------------------------
DATA16_AN
  Relative segment, address: 04E0 - 04E3 (0x4 bytes), align: 0
  Segment part 7. ROOT        Intra module refs:   mul48_32_16
                                                   per_sample_dsp (metrology-background)
           ENTRY                   ADDRESS         REF BY
           =====                   =======         ======
           _A_OP2_8                04E0 
           LOCAL                   ADDRESS         
           =====                   =======         
           OP2_16                  04E0 
           OP2_32X                 04E0 
           OP2_8                   04E0 
    -------------------------------------------------------------------------
DATA16_AN
  Relative segment, address: 04E4 - 04EB (0x8 bytes), align: 0
  Segment part 8. ROOT        Intra module refs:   mul48_32_16
                                                   mul48u_32_16
                                                   per_sample_dsp (metrology-background)
           ENTRY                   ADDRESS         REF BY
           =====                   =======         ======
           _A_RES8                 04E4 
           LOCAL                   ADDRESS         
           =====                   =======         
           RES16                   04E4 
           RES32                   04E4 
           RES64                   04E4 
           RES8                    04E4 
    -------------------------------------------------------------------------
<CODE> 1 (was CODE)
  Relative segment, address: 861A - 862F (0x16 bytes), align: 1
  Segment part 17.            Intra module refs:   evaluate_active_power
                                                   evaluate_reactive_power
           LOCAL                   ADDRESS         
           =====                   =======         
           mul48_32_16             861A 
    -------------------------------------------------------------------------
<CODE> 1 (was CODE)
  Relative segment, address: 8630 - 8643 (0x14 bytes), align: 1
  Segment part 18.            Intra module refs:   mul48_32_16
                                                   mul48u_32_16
           LOCAL                   ADDRESS         
           =====                   =======         
           ?Subroutine0            8630 
    -------------------------------------------------------------------------
<CODE> 1 (was CODE)
  Relative segment, address: 8644 - 8659 (0x16 bytes), align: 1
  Segment part 19.            Intra module refs:   evaluate_rms_current
                                                   evaluate_rms_voltage
           LOCAL                   ADDRESS         
           =====                   =======         
           mul48u_32_16            8644 
    -------------------------------------------------------------------------
DATA20_Z
  Relative segment, address: 2038 - 2039 (0x2 bytes), align: 1
  Segment part 10.
           ENTRY                   ADDRESS         REF BY
           =====                   =======         ======
           metrology_state         2038            metrology_init (metrology-setup)
                                                   metrology_switch_to_normal_mode (metrology-setup)
    -------------------------------------------------------------------------
DATA20_Z
  Relative segment, address: 2431 - 2431 (0x1 bytes), align: 0
  Segment part 11.            Intra module refs:   set_sd_phase_correction
           ENTRY                   ADDRESS         REF BY
           =====                   =======         ======
           operating_mode          2431            main (emeter-main)
                                                   metrology_switch_to_normal_mode (metrology-setup)
                                                   per_sample_dsp (metrology-background)
    -------------------------------------------------------------------------
DATA20_Z
  Relative segment, address: 203A - 203B (0x2 bytes), align: 1
  Segment part 12.            Intra module refs:   calculate_phase_readings
           ENTRY                   ADDRESS         REF BY
           =====                   =======         ======
           temperature_in_celsius
                                   203A            temperature (metrology-readings)
    -------------------------------------------------------------------------
DATA20_Z
  Relative segment, address: 203C - 2429 (0x3ee bytes), align: 1
  Segment part 13.            Intra module refs:   accumulate_total_energies
                                                   calculate_phase_readings
           ENTRY                   ADDRESS         REF BY
           =====                   =======         ======
           working_data            203C            ?Subroutine3 (metrology-setup)
                                                   active_power (metrology-readings)
                                                   adc_interrupt (metrology-background)
                                                   apparent_power (metrology-readings)
                                                   mains_frequency (metrology-readings)
                                                   metrology_init_from_nv_data (metrology-setup)
                                                   metrology_switch_to_normal_mode (metrology-setup)
                                                   per_sample_dsp (metrology-background)
                                                   per_sample_energy_pulse_processing (metrology-background)
                                                   phase_status (metrology-readings)
                                                   power_factor (metrology-readings)
                                                   reactive_power (metrology-readings)
                                                   rms_current (metrology-readings)
                                                   rms_voltage (metrology-readings)
    -------------------------------------------------------------------------
<CODE> 1 (was CODE)
  Relative segment, address: 89F2 - 8A1F (0x2e bytes), align: 1
  Segment part 20.            Intra module refs:   calculate_phase_readings
           ENTRY                   ADDRESS         REF BY
           =====                   =======         ======
           set_phase_correction    89F2 
    -------------------------------------------------------------------------
<CODE> 1 (was CODE)
  Relative segment, address: 886C - 889D (0x32 bytes), align: 1
  Segment part 21.
           ENTRY                   ADDRESS         REF BY
           =====                   =======         ======
           set_sd_phase_correction
                                   886C            metrology_switch_to_normal_mode (metrology-setup)
    -------------------------------------------------------------------------
DATA20_C
  Relative segment, address: 9794 - 979F (0xc bytes), align: 1
  Segment part 14.            Intra module refs:   set_sd_phase_correction
           LOCAL                   ADDRESS         
           =====                   =======         
           set_sd_phase_correction::sd_locations
                                   9794 
    -------------------------------------------------------------------------
<CODE> 1 (was CODE)
  Relative segment, address: 7C1C - 7C8D (0x72 bytes), align: 1
  Segment part 22.            Intra module refs:   calculate_phase_readings
           LOCAL                   ADDRESS         
           =====                   =======         
           evaluate_rms_voltage    7C1C 
               calls direct
    -------------------------------------------------------------------------
<CODE> 1 (was CODE)
  Relative segment, address: 72A8 - 7357 (0xb0 bytes), align: 1
  Segment part 23.            Intra module refs:   calculate_phase_readings
           LOCAL                   ADDRESS         
           =====                   =======         
           evaluate_rms_current    72A8 
               calls direct
    -------------------------------------------------------------------------
<CODE> 1 (was CODE)
  Relative segment, address: 8E28 - 8E45 (0x1e bytes), align: 1
  Segment part 25.            Intra module refs:   evaluate_active_power
                                                   evaluate_reactive_power
                                                   evaluate_rms_current
           LOCAL                   ADDRESS         
           =====                   =======         
           ?Subroutine1            8E28 
    -------------------------------------------------------------------------
<CODE> 1 (was CODE)
  Relative segment, address: 7DD2 - 7E37 (0x66 bytes), align: 1
  Segment part 24.            Intra module refs:   calculate_phase_readings
           LOCAL                   ADDRESS         
           =====                   =======         
           evaluate_active_power   7DD2 
               calls direct
    -------------------------------------------------------------------------
<CODE> 1 (was CODE)
  Relative segment, address: 7D68 - 7DD1 (0x6a bytes), align: 1
  Segment part 26.            Intra module refs:   calculate_phase_readings
           LOCAL                   ADDRESS         
           =====                   =======         
           evaluate_reactive_power
                                   7D68 
               calls direct
    -------------------------------------------------------------------------
<CODE> 1 (was CODE)
  Relative segment, address: 7A0E - 7A9B (0x8e bytes), align: 1
  Segment part 27.            Intra module refs:   calculate_phase_readings
           LOCAL                   ADDRESS         
           =====                   =======         
           evaluate_power_factor   7A0E 
               calls direct
    -------------------------------------------------------------------------
<CODE> 1 (was CODE)
  Relative segment, address: 9282 - 928D (0xc bytes), align: 1
  Segment part 43.            Intra module refs:   calculate_phase_readings
                                                   evaluate_power_factor
           LOCAL                   ADDRESS         
           =====                   =======         
           ?Subroutine3            9282 
    -------------------------------------------------------------------------
<CODE> 1 (was CODE)
  Relative segment, address: 7CFC - 7D67 (0x6c bytes), align: 1
  Segment part 28.            Intra module refs:   ?Subroutine4
           LOCAL                   ADDRESS         
           =====                   =======         
           integrate_power_to_energy
                                   7CFC 
               calls direct
    -------------------------------------------------------------------------
<CODE> 1 (was CODE)
  Relative segment, address: 92BA - 92C3 (0xa bytes), align: 1
  Segment part 40.            Intra module refs:   calculate_phase_readings
                                                   integrate_power_to_energy
                                                   sag_swell_control
           LOCAL                   ADDRESS         
           =====                   =======         
           ?Subroutine9            92BA 
    -------------------------------------------------------------------------
<CODE> 1 (was CODE)
  Relative segment, address: 6E62 - 6F5B (0xfa bytes), align: 1
  Segment part 29.            Intra module refs:   calculate_phase_readings
           LOCAL                   ADDRESS         
           =====                   =======         
           accumulate_phase_energies
                                   6E62 
               calls direct
    -------------------------------------------------------------------------
<CODE> 1 (was CODE)
  Relative segment, address: 92FE - 9305 (0x8 bytes), align: 1
  Segment part 30.            Intra module refs:   accumulate_phase_energies
           LOCAL                   ADDRESS         
           =====                   =======         
           ?Subroutine10           92FE 
    -------------------------------------------------------------------------
<CODE> 1 (was CODE)
  Relative segment, address: 92C4 - 92CD (0xa bytes), align: 1
  Segment part 31.            Intra module refs:   accumulate_phase_energies
           LOCAL                   ADDRESS         
           =====                   =======         
           ?Subroutine8            92C4 
    -------------------------------------------------------------------------
<CODE> 1 (was CODE)
  Relative segment, address: 916A - 9179 (0x10 bytes), align: 1
  Segment part 32.            Intra module refs:   ?Subroutine8
                                                   accumulate_phase_energies
           LOCAL                   ADDRESS         
           =====                   =======         
           ?Subroutine12           916A 
    -------------------------------------------------------------------------
<CODE> 1 (was CODE)
  Relative segment, address: 92CE - 92D7 (0xa bytes), align: 1
  Segment part 33.            Intra module refs:   accumulate_phase_energies
                                                   accumulate_total_energies
                                                   evaluate_power_factor
           LOCAL                   ADDRESS         
           =====                   =======         
           ?Subroutine5            92CE 
    -------------------------------------------------------------------------
<CODE> 1 (was CODE)
  Relative segment, address: 92E2 - 92EB (0xa bytes), align: 1
  Segment part 36.            Intra module refs:   accumulate_phase_energies
                                                   accumulate_total_energies
           LOCAL                   ADDRESS         
           =====                   =======         
           ?Subroutine7            92E2 
    -------------------------------------------------------------------------
<CODE> 1 (was CODE)
  Relative segment, address: 9198 - 91A5 (0xe bytes), align: 1
  Segment part 38.            Intra module refs:   accumulate_phase_energies
                                                   accumulate_total_energies
           LOCAL                   ADDRESS         
           =====                   =======         
           ?Subroutine4            9198 
    -------------------------------------------------------------------------
<CODE> 1 (was CODE)
  Relative segment, address: 6D68 - 6E61 (0xfa bytes), align: 1
  Segment part 34.            Intra module refs:   calculate_phase_readings
           LOCAL                   ADDRESS         
           =====                   =======         
           accumulate_total_energies
                                   6D68 
               calls direct
    -------------------------------------------------------------------------
<CODE> 1 (was CODE)
  Relative segment, address: 92B0 - 92B9 (0xa bytes), align: 1
  Segment part 35.            Intra module refs:   accumulate_total_energies
           LOCAL                   ADDRESS         
           =====                   =======         
           ?Subroutine11           92B0 
    -------------------------------------------------------------------------
<CODE> 1 (was CODE)
  Relative segment, address: 914A - 9159 (0x10 bytes), align: 1
  Segment part 37.            Intra module refs:   accumulate_total_energies
           LOCAL                   ADDRESS         
           =====                   =======         
           ?Subroutine6            914A 
    -------------------------------------------------------------------------
<CODE> 1 (was CODE)
  Relative segment, address: 77C4 - 7859 (0x96 bytes), align: 1
  Segment part 39.            Intra module refs:   calculate_phase_readings
           LOCAL                   ADDRESS         
           =====                   =======         
           sag_swell_control       77C4 
               calls direct
    -------------------------------------------------------------------------
<CODE> 1 (was CODE)
  Relative segment, address: 8902 - 8931 (0x30 bytes), align: 1
  Segment part 41.            Intra module refs:   sag_swell_control
           LOCAL                   ADDRESS         
           =====                   =======         
           ?Subroutine2            8902 
    -------------------------------------------------------------------------
<CODE> 1 (was CODE)
  Relative segment, address: 5AD0 - 5D09 (0x23a bytes), align: 1
  Segment part 42.
           ENTRY                   ADDRESS         REF BY
           =====                   =======         ======
           calculate_phase_readings
                                   5AD0            main (emeter-main)
               calls direct

    -------------------------------------------------------------------------
  LIBRARY MODULE, NAME : metrology-readings

  SEGMENTS IN THE MODULE
  ======================
<CODE> 1 (was CODE)
  Relative segment, address: 8AFC - 8B25 (0x2a bytes), align: 1
  Segment part 2.
           ENTRY                   ADDRESS         REF BY
           =====                   =======         ======
           active_power            8AFC            main (emeter-main)
                                                   oled_active_power (emeter-basic-oled)
                                                   update_input_registers (emeter-main)
               calls direct
    -------------------------------------------------------------------------
<CODE> 1 (was CODE)
  Relative segment, address: 9306 - 930D (0x8 bytes), align: 1
  Segment part 8.             Intra module refs:   active_power
                                                   apparent_power
                                                   mains_frequency
                                                   phase_status
                                                   power_factor
                                                   reactive_power
                                                   rms_current
                                                   rms_voltage
           LOCAL                   ADDRESS         
           =====                   =======         
           ?Subroutine0            9306 
    -------------------------------------------------------------------------
<CODE> 1 (was CODE)
  Relative segment, address: 8AD2 - 8AFB (0x2a bytes), align: 1
  Segment part 3.
           ENTRY                   ADDRESS         REF BY
           =====                   =======         ======
           reactive_power          8AD2            oled_reactive_power (emeter-basic-oled)
                                                   update_input_registers (emeter-main)
               calls direct
    -------------------------------------------------------------------------
<CODE> 1 (was CODE)
  Relative segment, address: 8B50 - 8B79 (0x2a bytes), align: 1
  Segment part 4.
           ENTRY                   ADDRESS         REF BY
           =====                   =======         ======
           apparent_power          8B50            oled_apparent_power (emeter-basic-oled)
                                                   update_input_registers (emeter-main)
               calls direct
    -------------------------------------------------------------------------
<CODE> 1 (was CODE)
  Relative segment, address: 915A - 9169 (0x10 bytes), align: 1
  Segment part 5.
           ENTRY                   ADDRESS         REF BY
           =====                   =======         ======
           power_factor            915A            ?Subroutine4 (emeter-main)
                                                   oled_power_factor (emeter-basic-oled)
               calls direct
    -------------------------------------------------------------------------
<CODE> 1 (was CODE)
  Relative segment, address: 8FF8 - 900D (0x16 bytes), align: 1
  Segment part 6.
           ENTRY                   ADDRESS         REF BY
           =====                   =======         ======
           rms_voltage             8FF8            oled_rms_voltage (emeter-basic-oled)
                                                   update_input_registers (emeter-main)
               calls direct
    -------------------------------------------------------------------------
<CODE> 1 (was CODE)
  Relative segment, address: 8FB6 - 8FCB (0x16 bytes), align: 1
  Segment part 7.
           ENTRY                   ADDRESS         REF BY
           =====                   =======         ======
           rms_current             8FB6            ?Subroutine6 (emeter-main)
                                                   oled_rms_current (emeter-basic-oled)
               calls direct
    -------------------------------------------------------------------------
<CODE> 1 (was CODE)
  Relative segment, address: 917A - 9189 (0x10 bytes), align: 1
  Segment part 9.
           ENTRY                   ADDRESS         REF BY
           =====                   =======         ======
           mains_frequency         917A            ?Subroutine7 (emeter-main)
                                                   oled_mains_frequency (emeter-basic-oled)
               calls direct
    -------------------------------------------------------------------------
<CODE> 1 (was CODE)
  Relative segment, address: 92F6 - 92FD (0x8 bytes), align: 1
  Segment part 13.
           ENTRY                   ADDRESS         REF BY
           =====                   =======         ======
           temperature             92F6            estimate_current_rtc_correction (emeter-rtc-c)
                                                   oled_date_temp (emeter-basic-oled)
    -------------------------------------------------------------------------
<CODE> 1 (was CODE)
  Relative segment, address: 8FE2 - 8FF7 (0x16 bytes), align: 1
  Segment part 14.
           ENTRY                   ADDRESS         REF BY
           =====                   =======         ======
           phase_status            8FE2            check_voltage_ranges (emeter-main)
                                                   main (emeter-main)
               calls direct

    -------------------------------------------------------------------------
  LIBRARY MODULE, NAME : metrology-setup

  SEGMENTS IN THE MODULE
  ======================
DATA16_AN
  Relative segment, address: 0500 - 0501 (0x2 bytes), align: 0
  Segment part 7. ROOT        Intra module refs:   metrology_init_analog_front_end_normal_mode
           ENTRY                   ADDRESS         REF BY
           =====                   =======         ======
           _A_DMACTL0_L            0500 
           LOCAL                   ADDRESS         
           =====                   =======         
           DMACTL0                 0500 
           DMACTL0_H               0501 
           DMACTL0_L               0500 
    -------------------------------------------------------------------------
DATA16_AN
  Relative segment, address: 0522 - 0525 (0x4 bytes), align: 0
  Segment part 9. ROOT        Intra module refs:   metrology_init_analog_front_end_normal_mode
           ENTRY                   ADDRESS         REF BY
           =====                   =======         ======
           _A_DMA1SA_L             0522 
           LOCAL                   ADDRESS         
           =====                   =======         
           DMA1SA                  0522 
           DMA1SAH                 0524 
           DMA1SAL                 0522 
           DMA1SA_H                0523 
           DMA1SA_L                0522 
    -------------------------------------------------------------------------
DATA16_AN
  Relative segment, address: 0526 - 0529 (0x4 bytes), align: 0
  Segment part 10. ROOT       Intra module refs:   metrology_init_analog_front_end_normal_mode
           ENTRY                   ADDRESS         REF BY
           =====                   =======         ======
           _A_DMA1DA_L             0526 
           LOCAL                   ADDRESS         
           =====                   =======         
           DMA1DA                  0526 
           DMA1DAH                 0528 
           DMA1DAL                 0526 
           DMA1DA_H                0527 
           DMA1DA_L                0526 
    -------------------------------------------------------------------------
DATA16_AN
  Relative segment, address: 052A - 052B (0x2 bytes), align: 0
  Segment part 11. ROOT       Intra module refs:   metrology_init_analog_front_end_normal_mode
           ENTRY                   ADDRESS         REF BY
           =====                   =======         ======
           DMA1SZ                  052A 
    -------------------------------------------------------------------------
DATA16_AN
  Relative segment, address: 01B0 - 01B1 (0x2 bytes), align: 0
  Segment part 12. ROOT       Intra module refs:   metrology_init_analog_front_end_normal_mode
           ENTRY                   ADDRESS         REF BY
           =====                   =======         ======
           _A_REFCTL0_L            01B0 
           LOCAL                   ADDRESS         
           =====                   =======         
           REFCTL0                 01B0 
           REFCTL0_H               01B1 
           REFCTL0_L               01B0 
    -------------------------------------------------------------------------
DATA16_AN
  Relative segment, address: 0800 - 0801 (0x2 bytes), align: 0
  Segment part 13. ROOT       Intra module refs:   metrology_disable_analog_front_end
                                                   metrology_init_analog_front_end_normal_mode
           ENTRY                   ADDRESS         REF BY
           =====                   =======         ======
           _A_SD24BCTL0_L          0800 
           LOCAL                   ADDRESS         
           =====                   =======         
           SD24BCTL0               0800 
           SD24BCTL0_H             0801 
           SD24BCTL0_L             0800 
    -------------------------------------------------------------------------
DATA16_AN
  Relative segment, address: 0802 - 0803 (0x2 bytes), align: 0
  Segment part 14. ROOT       Intra module refs:   metrology_init_analog_front_end_normal_mode
           ENTRY                   ADDRESS         REF BY
           =====                   =======         ======
           _A_SD24BCTL1_L          0802 
           LOCAL                   ADDRESS         
           =====                   =======         
           SD24BCTL1               0802 
           SD24BCTL1_H             0803 
           SD24BCTL1_L             0802 
    -------------------------------------------------------------------------
DATA16_AN
  Relative segment, address: 0808 - 0809 (0x2 bytes), align: 0
  Segment part 16. ROOT       Intra module refs:   metrology_init_analog_front_end_normal_mode
           ENTRY                   ADDRESS         REF BY
           =====                   =======         ======
           _A_SD24BTRGPRE_L        0808 
           LOCAL                   ADDRESS         
           =====                   =======         
           SD24BTRGPRE             0808 
           SD24BTRGPRE_H           0809 
           SD24BTRGPRE_L           0808 
    -------------------------------------------------------------------------
DATA16_AN
  Relative segment, address: 080C - 080D (0x2 bytes), align: 0
  Segment part 17. ROOT       Intra module refs:   metrology_init_analog_front_end_normal_mode
           ENTRY                   ADDRESS         REF BY
           =====                   =======         ======
           _A_SD24BIE_L            080C 
           LOCAL                   ADDRESS         
           =====                   =======         
           SD24BIE                 080C 
           SD24BIE_H               080D 
           SD24BIE_L               080C 
    -------------------------------------------------------------------------
DATA16_AN
  Relative segment, address: 0810 - 0811 (0x2 bytes), align: 0
  Segment part 18. ROOT       Intra module refs:   metrology_disable_analog_front_end
                                                   metrology_init_analog_front_end_normal_mode
           ENTRY                   ADDRESS         REF BY
           =====                   =======         ======
           _A_SD24BCCTL0_L         0810 
           LOCAL                   ADDRESS         
           =====                   =======         
           SD24BCCTL0              0810 
           SD24BCCTL0_H            0811 
           SD24BCCTL0_L            0810 
    -------------------------------------------------------------------------
DATA16_AN
  Relative segment, address: 0812 - 0813 (0x2 bytes), align: 0
  Segment part 19. ROOT       Intra module refs:   metrology_disable_analog_front_end
                                                   metrology_init_analog_front_end_normal_mode
           ENTRY                   ADDRESS         REF BY
           =====                   =======         ======
           _A_SD24BINCTL0_L        0812 
           LOCAL                   ADDRESS         
           =====                   =======         
           SD24BINCTL0             0812 
           SD24BINCTL0_H           0813 
           SD24BINCTL0_L           0812 
    -------------------------------------------------------------------------
DATA16_AN
  Relative segment, address: 0814 - 0815 (0x2 bytes), align: 0
  Segment part 20. ROOT       Intra module refs:   metrology_disable_analog_front_end
                                                   metrology_init_analog_front_end_normal_mode
           ENTRY                   ADDRESS         REF BY
           =====                   =======         ======
           _A_SD24BOSR0_L          0814 
           LOCAL                   ADDRESS         
           =====                   =======         
           SD24BOSR0               0814 
           SD24BOSR0_H             0815 
           SD24BOSR0_L             0814 
    -------------------------------------------------------------------------
DATA16_AN
  Relative segment, address: 0818 - 0819 (0x2 bytes), align: 0
  Segment part 22. ROOT       Intra module refs:   metrology_disable_analog_front_end
                                                   metrology_init_analog_front_end_normal_mode
           ENTRY                   ADDRESS         REF BY
           =====                   =======         ======
           _A_SD24BCCTL1_L         0818 
           LOCAL                   ADDRESS         
           =====                   =======         
           SD24BCCTL1              0818 
           SD24BCCTL1_H            0819 
           SD24BCCTL1_L            0818 
    -------------------------------------------------------------------------
DATA16_AN
  Relative segment, address: 081A - 081B (0x2 bytes), align: 0
  Segment part 23. ROOT       Intra module refs:   metrology_disable_analog_front_end
                                                   metrology_init_analog_front_end_normal_mode
           ENTRY                   ADDRESS         REF BY
           =====                   =======         ======
           _A_SD24BINCTL1_L        081A 
           LOCAL                   ADDRESS         
           =====                   =======         
           SD24BINCTL1             081A 
           SD24BINCTL1_H           081B 
           SD24BINCTL1_L           081A 
    -------------------------------------------------------------------------
DATA16_AN
  Relative segment, address: 081C - 081D (0x2 bytes), align: 0
  Segment part 24. ROOT       Intra module refs:   metrology_disable_analog_front_end
                                                   metrology_init_analog_front_end_normal_mode
           ENTRY                   ADDRESS         REF BY
           =====                   =======         ======
           _A_SD24BOSR1_L          081C 
           LOCAL                   ADDRESS         
           =====                   =======         
           SD24BOSR1               081C 
           SD24BOSR1_H             081D 
           SD24BOSR1_L             081C 
    -------------------------------------------------------------------------
DATA16_AN
  Relative segment, address: 0820 - 0821 (0x2 bytes), align: 0
  Segment part 26. ROOT       Intra module refs:   metrology_disable_analog_front_end
                                                   metrology_init_analog_front_end_normal_mode
           ENTRY                   ADDRESS         REF BY
           =====                   =======         ======
           _A_SD24BCCTL2_L         0820 
           LOCAL                   ADDRESS         
           =====                   =======         
           SD24BCCTL2              0820 
           SD24BCCTL2_H            0821 
           SD24BCCTL2_L            0820 
    -------------------------------------------------------------------------
DATA16_AN
  Relative segment, address: 0822 - 0823 (0x2 bytes), align: 0
  Segment part 27. ROOT       Intra module refs:   metrology_disable_analog_front_end
                                                   metrology_init_analog_front_end_normal_mode
           ENTRY                   ADDRESS         REF BY
           =====                   =======         ======
           _A_SD24BINCTL2_L        0822 
           LOCAL                   ADDRESS         
           =====                   =======         
           SD24BINCTL2             0822 
           SD24BINCTL2_H           0823 
           SD24BINCTL2_L           0822 
    -------------------------------------------------------------------------
DATA16_AN
  Relative segment, address: 0824 - 0825 (0x2 bytes), align: 0
  Segment part 28. ROOT       Intra module refs:   metrology_disable_analog_front_end
                                                   metrology_init_analog_front_end_normal_mode
           ENTRY                   ADDRESS         REF BY
           =====                   =======         ======
           _A_SD24BOSR2_L          0824 
           LOCAL                   ADDRESS         
           =====                   =======         
           SD24BOSR2               0824 
           SD24BOSR2_H             0825 
           SD24BOSR2_L             0824 
    -------------------------------------------------------------------------
<CODE> 1 (was CODE)
  Relative segment, address: 6680 - 6749 (0xca bytes), align: 1
  Segment part 33.            Intra module refs:   metrology_switch_to_normal_mode
           ENTRY                   ADDRESS         REF BY
           =====                   =======         ======
           metrology_init_analog_front_end_normal_mode
                                   6680 
               calls direct
    -------------------------------------------------------------------------
<CODE> 1 (was CODE)
  Relative segment, address: 674A - 6753 (0xa bytes), align: 1
  Segment part 34.            Intra module refs:   metrology_disable_analog_front_end
                                                   metrology_init_analog_front_end_normal_mode
           LOCAL                   ADDRESS         
           =====                   =======         
           ?Subroutine0            674A 
    -------------------------------------------------------------------------
<CODE> 1 (was CODE)
  Relative segment, address: 6754 - 67BB (0x68 bytes), align: 1
  Segment part 35.
           ENTRY                   ADDRESS         REF BY
           =====                   =======         ======
           metrology_disable_analog_front_end
                                   6754            system_setup (emeter-setup)
               calls direct
    -------------------------------------------------------------------------
<CODE> 1 (was CODE)
  Relative segment, address: 91B4 - 91C1 (0xe bytes), align: 1
  Segment part 36.            Intra module refs:   metrology_disable_analog_front_end
                                                   metrology_init_analog_front_end_normal_mode
           LOCAL                   ADDRESS         
           =====                   =======         
           ?Subroutine3            91B4 
    -------------------------------------------------------------------------
<CODE> 1 (was CODE)
  Relative segment, address: 92D8 - 92E1 (0xa bytes), align: 1
  Segment part 37.            Intra module refs:   metrology_disable_analog_front_end
                                                   metrology_init_analog_front_end_normal_mode
           LOCAL                   ADDRESS         
           =====                   =======         
           ?Subroutine2            92D8 
    -------------------------------------------------------------------------
<CODE> 1 (was CODE)
  Relative segment, address: 7358 - 73AB (0x54 bytes), align: 1
  Segment part 38.
           ENTRY                   ADDRESS         REF BY
           =====                   =======         ======
           metrology_init_from_nv_data
                                   7358            system_setup (emeter-setup)
               calls direct
    -------------------------------------------------------------------------
<CODE> 1 (was CODE)
  Relative segment, address: 73AC - 73B1 (0x6 bytes), align: 1
  Segment part 39.            Intra module refs:   metrology_init_from_nv_data
           LOCAL                   ADDRESS         
           =====                   =======         
           ?Subroutine1            73AC 
    -------------------------------------------------------------------------
<CODE> 1 (was CODE)
  Relative segment, address: 73B2 - 73FF (0x4e bytes), align: 1
  Segment part 41.
           ENTRY                   ADDRESS         REF BY
           =====                   =======         ======
           metrology_switch_to_normal_mode
                                   73B2            system_setup (emeter-setup)
               calls direct
    -------------------------------------------------------------------------
<CODE> 1 (was CODE)
  Relative segment, address: 855A - 8599 (0x40 bytes), align: 1
  Segment part 43.
           ENTRY                   ADDRESS         REF BY
           =====                   =======         ======
           metrology_init          855A            system_setup (emeter-setup)
               calls direct

    *************************************************************************

  FILE NAME : C:\Projetos\Ztec\Source\emeter-app\emeter-app-67641\Debug\Obj\emeter-multirate.r43
    *************************************************************************

  FILE NAME : C:\Projetos\Ztec\Source\emeter-app\emeter-app-67641\Debug\Obj\emeter-oled.r43
  PROGRAM MODULE, NAME : emeter-oled

  SEGMENTS IN THE MODULE
  ======================
DATA16_AN
  Relative segment, address: 0640 - 0641 (0x2 bytes), align: 0
  Segment part 1. ROOT        Intra module refs:   I2C_start
                                                   I2C_stop
                                                   i2c_init
           ENTRY                   ADDRESS         REF BY
           =====                   =======         ======
           _A_UCB0CTLW0_L          0640 
           LOCAL                   ADDRESS         
           =====                   =======         
           UCB0CTLW0               0640 
           UCB0CTLW0_H             0641 
           UCB0CTLW0_L             0640 
    -------------------------------------------------------------------------
DATA16_AN
  Relative segment, address: 0646 - 0647 (0x2 bytes), align: 0
  Segment part 2. ROOT        Intra module refs:   i2c_init
           ENTRY                   ADDRESS         REF BY
           =====                   =======         ======
           _A_UCB0BRW_L            0646 
           LOCAL                   ADDRESS         
           =====                   =======         
           UCB0BRW                 0646 
           UCB0BRW_H               0647 
           UCB0BRW_L               0646 
    -------------------------------------------------------------------------
DATA16_AN
  Relative segment, address: 0648 - 0649 (0x2 bytes), align: 0
  Segment part 3. ROOT        Intra module refs:   i2c_init
           ENTRY                   ADDRESS         REF BY
           =====                   =======         ======
           _A_UCB0STATW_L          0648 
           LOCAL                   ADDRESS         
           =====                   =======         
           UCB0STATW               0648 
           UCB0STATW_H             0649 
           UCB0STATW_L             0648 
    -------------------------------------------------------------------------
DATA16_AN
  Relative segment, address: 064E - 064F (0x2 bytes), align: 0
  Segment part 4. ROOT        Intra module refs:   I2C_send
           ENTRY                   ADDRESS         REF BY
           =====                   =======         ======
           _A_UCB0TXBUF_L          064E 
           LOCAL                   ADDRESS         
           =====                   =======         
           UCB0TXBUF               064E 
           UCB0TXBUF_H             064F 
           UCB0TXBUF_L             064E 
    -------------------------------------------------------------------------
DATA16_AN
  Relative segment, address: 0660 - 0661 (0x2 bytes), align: 0
  Segment part 5. ROOT        Intra module refs:   i2c_init
           ENTRY                   ADDRESS         REF BY
           =====                   =======         ======
           _A_UCB0I2CSA_L          0660 
           LOCAL                   ADDRESS         
           =====                   =======         
           UCB0I2CSA               0660 
           UCB0I2CSA_H             0661 
           UCB0I2CSA_L             0660 
    -------------------------------------------------------------------------
DATA16_AN
  Relative segment, address: 066A - 066B (0x2 bytes), align: 0
  Segment part 6. ROOT        Intra module refs:   i2c_init
           ENTRY                   ADDRESS         REF BY
           =====                   =======         ======
           _A_UCB0IE_L             066A 
           LOCAL                   ADDRESS         
           =====                   =======         
           UCB0IE                  066A 
           UCB0IE_H                066B 
           UCB0IE_L                066A 
    -------------------------------------------------------------------------
DATA16_AN
  Relative segment, address: 066C - 066D (0x2 bytes), align: 0
  Segment part 7. ROOT        Intra module refs:   I2C_send
           ENTRY                   ADDRESS         REF BY
           =====                   =======         ======
           _A_UCB0IFG_L            066C 
           LOCAL                   ADDRESS         
           =====                   =======         
           UCB0IFG                 066C 
           UCB0IFG_H               066D 
           UCB0IFG_L               066C 
    -------------------------------------------------------------------------
DATA20_C
  Relative segment, address: 99BF - 99DE (0x20 bytes), align: 0
  Segment part 17.            Intra module refs:   Oled_display_valor
    -------------------------------------------------------------------------
DATA20_C
  Relative segment, address: 99DF - 99E8 (0xa bytes), align: 0
  Segment part 18.            Intra module refs:   Oled_display_valor
    -------------------------------------------------------------------------
DATA20_C
  Relative segment, address: 99E9 - 99F2 (0xa bytes), align: 0
  Segment part 19.            Intra module refs:   Oled_display_valor
    -------------------------------------------------------------------------
DATA20_C
  Relative segment, address: 99F3 - 99FC (0xa bytes), align: 0
  Segment part 20.            Intra module refs:   Oled_display_valor
    -------------------------------------------------------------------------
DATA20_C
  Relative segment, address: 99FD - 9A06 (0xa bytes), align: 0
  Segment part 21.            Intra module refs:   Oled_display_valor
    -------------------------------------------------------------------------
DATA20_C
  Relative segment, address: 9A07 - 9A10 (0xa bytes), align: 0
  Segment part 22.            Intra module refs:   Oled_display_valor
    -------------------------------------------------------------------------
DATA20_C
  Relative segment, address: 9A11 - 9A26 (0x16 bytes), align: 0
  Segment part 23.            Intra module refs:   Oled_titulo
    -------------------------------------------------------------------------
DATA20_C
  Relative segment, address: 9A27 - 9C06 (0x1e0 bytes), align: 0
  Segment part 24.            Intra module refs:   ssd1306_printText
                                                   ssd1306_printText_peq
           ENTRY                   ADDRESS         REF BY
           =====                   =======         ======
           font_5x7                9A27 
    -------------------------------------------------------------------------
<CODE> 1 (was CODE)
  Relative segment, address: 8B7A - 8BA1 (0x28 bytes), align: 1
  Segment part 25.
           ENTRY                   ADDRESS         REF BY
           =====                   =======         ======
           i2c_init                8B7A            system_setup (emeter-setup)
    -------------------------------------------------------------------------
<CODE> 1 (was CODE)
  Relative segment, address: 91DE - 91EB (0xe bytes), align: 1
  Segment part 26.            Intra module refs:   ?Subroutine0
                                                   ?Subroutine1
                                                   ssd1306_command
           ENTRY                   ADDRESS         REF BY
           =====                   =======         ======
           I2C_start               91DE 
    -------------------------------------------------------------------------
<CODE> 1 (was CODE)
  Relative segment, address: 928E - 9299 (0xc bytes), align: 1
  Segment part 27.            Intra module refs:   ssd1306_clearDisplay
                                                   ssd1306_command
                                                   ssd1306_printText
                                                   ssd1306_printText_peq
           ENTRY                   ADDRESS         REF BY
           =====                   =======         ======
           I2C_stop                928E 
    -------------------------------------------------------------------------
<CODE> 1 (was CODE)
  Relative segment, address: 91EC - 91F9 (0xe bytes), align: 1
  Segment part 28.            Intra module refs:   ?Subroutine0
                                                   ssd1306_clearDisplay
                                                   ssd1306_command
                                                   ssd1306_printText
                                                   ssd1306_printText_peq
           ENTRY                   ADDRESS         REF BY
           =====                   =======         ======
           I2C_send                91EC 
    -------------------------------------------------------------------------
<CODE> 1 (was CODE)
  Relative segment, address: 74A8 - 7549 (0xa2 bytes), align: 1
  Segment part 29.
           ENTRY                   ADDRESS         REF BY
           =====                   =======         ======
           SSD1306_Init            74A8            system_setup (emeter-setup)
               calls direct
    -------------------------------------------------------------------------
<CODE> 1 (was CODE)
  Relative segment, address: 8F6E - 8F85 (0x18 bytes), align: 1
  Segment part 30.            Intra module refs:   SSD1306_Init
                                                   ssd1306_setPosition
           ENTRY                   ADDRESS         REF BY
           =====                   =======         ======
           ssd1306_command         8F6E 
               calls direct
    -------------------------------------------------------------------------
<CODE> 1 (was CODE)
  Relative segment, address: 86D6 - 8713 (0x3e bytes), align: 1
  Segment part 31.            Intra module refs:   ?Subroutine1
                                                   ssd1306_clearDisplay
                                                   ssd1306_printText_peq
           ENTRY                   ADDRESS         REF BY
           =====                   =======         ======
           ssd1306_setPosition     86D6 
               calls direct
    -------------------------------------------------------------------------
<CODE> 1 (was CODE)
  Relative segment, address: 88D0 - 8901 (0x32 bytes), align: 1
  Segment part 32.
           ENTRY                   ADDRESS         REF BY
           =====                   =======         ======
           ssd1306_clearDisplay    88D0            OLED_display_startup_message (emeter-basic-oled)
                                                   update_oled (emeter-basic-oled)
               calls direct
    -------------------------------------------------------------------------
<CODE> 1 (was CODE)
  Relative segment, address: 925E - 9269 (0xc bytes), align: 1
  Segment part 36.            Intra module refs:   ssd1306_clearDisplay
                                                   ssd1306_printText_peq
           LOCAL                   ADDRESS         
           =====                   =======         
           ?Subroutine0            925E 
    -------------------------------------------------------------------------
<CODE> 1 (was CODE)
  Relative segment, address: 6A28 - 6B53 (0x12c bytes), align: 1
  Segment part 33.
           ENTRY                   ADDRESS         REF BY
           =====                   =======         ======
           ssd1306_printText       6A28            ?Subroutine21 (emeter-basic-oled)
                                                   ?Subroutine22 (emeter-basic-oled)
                                                   OLED_display_startup_message (emeter-basic-oled)
               calls direct
    -------------------------------------------------------------------------
<CODE> 1 (was CODE)
  Relative segment, address: 90F0 - 9101 (0x12 bytes), align: 1
  Segment part 34.            Intra module refs:   ssd1306_printText
           LOCAL                   ADDRESS         
           =====                   =======         
           ?Subroutine1            90F0 
    -------------------------------------------------------------------------
<CODE> 1 (was CODE)
  Relative segment, address: 7BA0 - 7C1B (0x7c bytes), align: 1
  Segment part 35.            Intra module refs:   Oled_display_valor
                                                   Oled_titulo
           ENTRY                   ADDRESS         REF BY
           =====                   =======         ======
           ssd1306_printText_peq   7BA0            OLED_display_startup_message (emeter-basic-oled)
                                                   oled_date_temp (emeter-basic-oled)
               calls direct
    -------------------------------------------------------------------------
<CODE> 1 (was CODE)
  Relative segment, address: 7118 - 71ED (0xd6 bytes), align: 1
  Segment part 39.
           ENTRY                   ADDRESS         REF BY
           =====                   =======         ======
           Oled_display_valor      7118            ?Subroutine12 (emeter-basic-oled)
                                                   ?Subroutine16 (emeter-basic-oled)
                                                   Segment part 77 (emeter-basic-oled)
                                                   oled_date_temp (emeter-basic-oled)
               calls direct
    -------------------------------------------------------------------------
<CODE> 1 (was CODE)
  Relative segment, address: 8B26 - 8B4F (0x2a bytes), align: 1
  Segment part 40.
           ENTRY                   ADDRESS         REF BY
           =====                   =======         ======
           Oled_titulo             8B26            ?Subroutine12 (emeter-basic-oled)
                                                   oled_active_power (emeter-basic-oled)
                                                   oled_apparent_power (emeter-basic-oled)
                                                   oled_date_temp (emeter-basic-oled)
                                                   oled_mains_frequency (emeter-basic-oled)
                                                   oled_power_factor (emeter-basic-oled)
                                                   oled_reactive_power (emeter-basic-oled)
                                                   oled_rms_current (emeter-basic-oled)
                                                   oled_rms_voltage (emeter-basic-oled)
                                                   update_oled (emeter-basic-oled)
               calls direct

    *************************************************************************

  FILE NAME : C:\Projetos\Ztec\Source\emeter-app\emeter-app-67641\Debug\Obj\emeter-rtc-c.r43
  PROGRAM MODULE, NAME : emeter-rtc-c

  SEGMENTS IN THE MODULE
  ======================
DATA16_AN
  Relative segment, address: 04A0 - 04A1 (0x2 bytes), align: 0
  Segment part 1. ROOT        Intra module refs:   rtc_init
           ENTRY                   ADDRESS         REF BY
           =====                   =======         ======
           _A_RTCCTL0_L            04A0 
           LOCAL                   ADDRESS         
           =====                   =======         
           RTCCTL0                 04A0 
           RTCCTL0_H               04A1 
           RTCCTL0_L               04A0 
    -------------------------------------------------------------------------
DATA16_AN
  Relative segment, address: 04A2 - 04A3 (0x2 bytes), align: 0
  Segment part 2. ROOT        Intra module refs:   rtc_init
           ENTRY                   ADDRESS         REF BY
           =====                   =======         ======
           _A_RTCCTL13_L           04A2 
           LOCAL                   ADDRESS         
           =====                   =======         
           RTCCTL13                04A2 
           RTCCTL13_H              04A3 
           RTCCTL13_L              04A2 
    -------------------------------------------------------------------------
DATA16_AN
  Relative segment, address: 04A4 - 04A5 (0x2 bytes), align: 0
  Segment part 3. ROOT        Intra module refs:   rtc_init
           ENTRY                   ADDRESS         REF BY
           =====                   =======         ======
           _A_RTCOCAL_L            04A4 
           LOCAL                   ADDRESS         
           =====                   =======         
           RTCOCAL                 04A4 
           RTCOCAL_H               04A5 
           RTCOCAL_L               04A4 
    -------------------------------------------------------------------------
DATA16_AN
  Relative segment, address: 04A6 - 04A7 (0x2 bytes), align: 0
  Segment part 4. ROOT        Intra module refs:   update_rtc_temperature_correction
           ENTRY                   ADDRESS         REF BY
           =====                   =======         ======
           _A_RTCTCMP_L            04A6 
           LOCAL                   ADDRESS         
           =====                   =======         
           RTCTCMP                 04A6 
           RTCTCMP_H               04A7 
           RTCTCMP_L               04A6 
    -------------------------------------------------------------------------
DATA16_AN
  Relative segment, address: 04AE - 04AF (0x2 bytes), align: 0
  Segment part 5. ROOT        Intra module refs:   rtc_isr
           ENTRY                   ADDRESS         REF BY
           =====                   =======         ======
           RTCIV                   04AE 
    -------------------------------------------------------------------------
DATA16_AN
  Relative segment, address: 04B0 - 04B1 (0x2 bytes), align: 0
  Segment part 6. ROOT        Intra module refs:   get_rtc
                                                   rtc_init
                                                   rtc_isr
           ENTRY                   ADDRESS         REF BY
           =====                   =======         ======
           _A_RTCTIM0_L            04B0 
           LOCAL                   ADDRESS         
           =====                   =======         
           RTCTIM0                 04B0 
           RTCTIM0_H               04B1 
           RTCTIM0_L               04B0 
    -------------------------------------------------------------------------
DATA16_AN
  Relative segment, address: 04B2 - 04B3 (0x2 bytes), align: 0
  Segment part 7. ROOT        Intra module refs:   get_rtc
                                                   rtc_init
           ENTRY                   ADDRESS         REF BY
           =====                   =======         ======
           _A_RTCTIM1_L            04B2 
           LOCAL                   ADDRESS         
           =====                   =======         
           RTCTIM1                 04B2 
           RTCTIM1_H               04B3 
           RTCTIM1_L               04B2 
    -------------------------------------------------------------------------
DATA16_AN
  Relative segment, address: 04B4 - 04B5 (0x2 bytes), align: 0
  Segment part 8. ROOT        Intra module refs:   get_rtc
                                                   rtc_init
           ENTRY                   ADDRESS         REF BY
           =====                   =======         ======
           _A_RTCDATE_L            04B4 
           LOCAL                   ADDRESS         
           =====                   =======         
           RTCDATE                 04B4 
           RTCDATE_H               04B5 
           RTCDATE_L               04B4 
    -------------------------------------------------------------------------
DATA16_AN
  Relative segment, address: 04B6 - 04B7 (0x2 bytes), align: 0
  Segment part 9. ROOT        Intra module refs:   get_rtc
                                                   rtc_init
           ENTRY                   ADDRESS         REF BY
           =====                   =======         ======
           _A_RTCYEAR_L            04B6 
           LOCAL                   ADDRESS         
           =====                   =======         
           RTCYEAR                 04B6 
           RTCYEAR_H               04B7 
           RTCYEAR_L               04B6 
    -------------------------------------------------------------------------
DATA20_Z
  Relative segment, address: 242A - 242B (0x2 bytes), align: 1
  Segment part 14.            Intra module refs:   estimate_current_rtc_correction
                                                   update_rtc_temperature_correction
           ENTRY                   ADDRESS         REF BY
           =====                   =======         ======
           rtc_correction          242A 
    -------------------------------------------------------------------------
DATA20_Z
  Relative segment, address: 2432 - 2432 (0x1 bytes), align: 0
  Segment part 15.            Intra module refs:   rtc_init
                                                   rtc_isr
           ENTRY                   ADDRESS         REF BY
           =====                   =======         ======
           rtc_status              2432            main (emeter-main)
    -------------------------------------------------------------------------
DATA20_Z
  Relative segment, address: 2433 - 2433 (0x1 bytes), align: 0
  Segment part 16.            Intra module refs:   rtc_isr
           ENTRY                   ADDRESS         REF BY
           =====                   =======         ======
           seconds                 2433 
    -------------------------------------------------------------------------
DATA20_Z
  Relative segment, address: 2434 - 2434 (0x1 bytes), align: 0
  Segment part 17.            Intra module refs:   rtc_init
           ENTRY                   ADDRESS         REF BY
           =====                   =======         ======
           rtc_offset_correction   2434 
    -------------------------------------------------------------------------
DATA20_Z
  Relative segment, address: 2435 - 2435 (0x1 bytes), align: 0
  Segment part 18.            Intra module refs:   rtc_init
           ENTRY                   ADDRESS         REF BY
           =====                   =======         ======
           rtc_offset_direction    2435 
    -------------------------------------------------------------------------
<CODE> 1 (was CODE)
  Relative segment, address: 8A7A - 8AA5 (0x2c bytes), align: 1
  Segment part 22.
           ENTRY                   ADDRESS         REF BY
           =====                   =======         ======
           get_rtc                 8A7A            oled_date_temp (emeter-basic-oled)
    -------------------------------------------------------------------------
<CODE> 1 (was CODE)
  Relative segment, address: 7E38 - 7E9B (0x64 bytes), align: 1
  Segment part 24.
           ENTRY                   ADDRESS         REF BY
           =====                   =======         ======
           rtc_init                7E38            system_setup (emeter-setup)
    -------------------------------------------------------------------------
<CODE> 1 (was CODE)
  Relative segment, address: 8BA2 - 8BC9 (0x28 bytes), align: 1
  Segment part 26.            Intra module refs:   rtc_isr
           ENTRY                   ADDRESS         REF BY
           =====                   =======         ======
           update_rtc_temperature_correction
                                   8BA2 
    -------------------------------------------------------------------------
<CODE> 1 (was CODE)
  Relative segment, address: 7FC6 - 8027 (0x62 bytes), align: 1
  Segment part 28.            Intra module refs:   rtc_isr
           ENTRY                   ADDRESS         REF BY
           =====                   =======         ======
           estimate_current_rtc_correction
                                   7FC6 
               calls direct
    -------------------------------------------------------------------------
ISR_CODE
  Relative segment, address: 43CC - 440D (0x42 bytes), align: 1
  Segment part 30.            Intra module refs:   rtc_isr::??INTVEC 80
           ENTRY                   ADDRESS         REF BY
           =====                   =======         ======
           rtc_isr                 43CC 
               interrupt function
               calls direct
    -------------------------------------------------------------------------
INTVEC
  Common segment, address: FF80 - FFD1 (0x52 bytes), align: 1
  Segment part 11. ROOT 
           ENTRY                   ADDRESS         REF BY
           =====                   =======         ======
           rtc_isr::??INTVEC 80    FFD0 

    *************************************************************************

  FILE NAME : C:\Projetos\Ztec\Source\emeter-app\emeter-app-67641\Debug\Obj\emeter-setup.r43
  PROGRAM MODULE, NAME : emeter-setup

  SEGMENTS IN THE MODULE
  ======================
DATA16_AN
  Relative segment, address: 09E0 - 09E1 (0x2 bytes), align: 0
  Segment part 1. ROOT        Intra module refs:   system_setup
           ENTRY                   ADDRESS         REF BY
           =====                   =======         ======
           _A_AUXCTL0_L            09E0 
           LOCAL                   ADDRESS         
           =====                   =======         
           AUXCTL0                 09E0 
           AUXCTL0_H               09E1 
           AUXCTL0_L               09E0 
    -------------------------------------------------------------------------
DATA16_AN
  Relative segment, address: 09E4 - 09E5 (0x2 bytes), align: 0
  Segment part 2. ROOT        Intra module refs:   system_setup
           ENTRY                   ADDRESS         REF BY
           =====                   =======         ======
           _A_AUXCTL2_L            09E4 
           LOCAL                   ADDRESS         
           =====                   =======         
           AUXCTL2                 09E4 
           AUXCTL2_H               09E5 
           AUXCTL2_L               09E4 
    -------------------------------------------------------------------------
DATA16_AN
  Relative segment, address: 09F4 - 09F5 (0x2 bytes), align: 0
  Segment part 3. ROOT        Intra module refs:   system_setup
           ENTRY                   ADDRESS         REF BY
           =====                   =======         ======
           _A_AUX3CHCTL_L          09F4 
           LOCAL                   ADDRESS         
           =====                   =======         
           AUX3CHCTL               09F4 
           AUX3CHCTL_H             09F5 
           AUX3CHCTL_L             09F4 
    -------------------------------------------------------------------------
DATA16_AN
  Relative segment, address: 09F6 - 09F7 (0x2 bytes), align: 0
  Segment part 4. ROOT        Intra module refs:   system_setup
           ENTRY                   ADDRESS         REF BY
           =====                   =======         ======
           _A_AUXADCCTL_L          09F6 
           LOCAL                   ADDRESS         
           =====                   =======         
           AUXADCCTL               09F6 
           AUXADCCTL_H             09F7 
           AUXADCCTL_L             09F6 
    -------------------------------------------------------------------------
DATA16_AN
  Relative segment, address: 09FC - 09FD (0x2 bytes), align: 0
  Segment part 5. ROOT        Intra module refs:   system_setup
           ENTRY                   ADDRESS         REF BY
           =====                   =======         ======
           _A_AUXIE_L              09FC 
           LOCAL                   ADDRESS         
           =====                   =======         
           AUXIE                   09FC 
           AUXIE_H                 09FD 
           AUXIE_L                 09FC 
    -------------------------------------------------------------------------
DATA16_AN
  Relative segment, address: 09FE - 09FF (0x2 bytes), align: 0
  Segment part 6. ROOT        Intra module refs:   aux_interrupt
           ENTRY                   ADDRESS         REF BY
           =====                   =======         ======
           _A_AUXIV_L              09FE 
           LOCAL                   ADDRESS         
           =====                   =======         
           AUXIV                   09FE 
           AUXIV_H                 09FF 
           AUXIV_L                 09FE 
    -------------------------------------------------------------------------
DATA16_AN
  Relative segment, address: 0202 - 0203 (0x2 bytes), align: 0
  Segment part 7. ROOT        Intra module refs:   system_setup
           ENTRY                   ADDRESS         REF BY
           =====                   =======         ======
           _A_PAOUT_L              0202 
           LOCAL                   ADDRESS         
           =====                   =======         
           PAOUT                   0202 
           PAOUT_H                 0203 
           PAOUT_L                 0202 
    -------------------------------------------------------------------------
DATA16_AN
  Relative segment, address: 0204 - 0205 (0x2 bytes), align: 0
  Segment part 8. ROOT        Intra module refs:   system_setup
           ENTRY                   ADDRESS         REF BY
           =====                   =======         ======
           _A_PADIR_L              0204 
           LOCAL                   ADDRESS         
           =====                   =======         
           PADIR                   0204 
           PADIR_H                 0205 
           PADIR_L                 0204 
    -------------------------------------------------------------------------
DATA16_AN
  Relative segment, address: 0206 - 0207 (0x2 bytes), align: 0
  Segment part 9. ROOT        Intra module refs:   system_setup
           ENTRY                   ADDRESS         REF BY
           =====                   =======         ======
           _A_PAREN_L              0206 
           LOCAL                   ADDRESS         
           =====                   =======         
           PAREN                   0206 
           PAREN_H                 0207 
           PAREN_L                 0206 
    -------------------------------------------------------------------------
DATA16_AN
  Relative segment, address: 020A - 020B (0x2 bytes), align: 0
  Segment part 10. ROOT       Intra module refs:   system_setup
           ENTRY                   ADDRESS         REF BY
           =====                   =======         ======
           _A_PASEL_L              020A 
           LOCAL                   ADDRESS         
           =====                   =======         
           PASEL                   020A 
           PASEL_H                 020B 
           PASEL_L                 020A 
    -------------------------------------------------------------------------
DATA16_AN
  Relative segment, address: 0224 - 0225 (0x2 bytes), align: 0
  Segment part 12. ROOT       Intra module refs:   system_setup
           ENTRY                   ADDRESS         REF BY
           =====                   =======         ======
           _A_PBDIR_L              0224 
           LOCAL                   ADDRESS         
           =====                   =======         
           PBDIR                   0224 
           PBDIR_H                 0225 
           PBDIR_L                 0224 
    -------------------------------------------------------------------------
DATA16_AN
  Relative segment, address: 0226 - 0227 (0x2 bytes), align: 0
  Segment part 13. ROOT       Intra module refs:   system_setup
           ENTRY                   ADDRESS         REF BY
           =====                   =======         ======
           _A_PBREN_L              0226 
           LOCAL                   ADDRESS         
           =====                   =======         
           PBREN                   0226 
           PBREN_H                 0227 
           PBREN_L                 0226 
    -------------------------------------------------------------------------
DATA16_AN
  Relative segment, address: 022A - 022B (0x2 bytes), align: 0
  Segment part 14. ROOT       Intra module refs:   system_setup
           ENTRY                   ADDRESS         REF BY
           =====                   =======         ======
           _A_PBSEL_L              022A 
           LOCAL                   ADDRESS         
           =====                   =======         
           PBSEL                   022A 
           PBSEL_H                 022B 
           PBSEL_L                 022A 
    -------------------------------------------------------------------------
DATA16_AN
  Relative segment, address: 0242 - 0243 (0x2 bytes), align: 0
  Segment part 15. ROOT       Intra module refs:   system_setup
           ENTRY                   ADDRESS         REF BY
           =====                   =======         ======
           _A_PCOUT_L              0242 
           LOCAL                   ADDRESS         
           =====                   =======         
           PCOUT                   0242 
           PCOUT_H                 0243 
           PCOUT_L                 0242 
    -------------------------------------------------------------------------
DATA16_AN
  Relative segment, address: 0244 - 0245 (0x2 bytes), align: 0
  Segment part 16. ROOT       Intra module refs:   system_setup
           ENTRY                   ADDRESS         REF BY
           =====                   =======         ======
           _A_PCDIR_L              0244 
           LOCAL                   ADDRESS         
           =====                   =======         
           PCDIR                   0244 
           PCDIR_H                 0245 
           PCDIR_L                 0244 
    -------------------------------------------------------------------------
DATA16_AN
  Relative segment, address: 0246 - 0247 (0x2 bytes), align: 0
  Segment part 17. ROOT       Intra module refs:   system_setup
           ENTRY                   ADDRESS         REF BY
           =====                   =======         ======
           _A_PCREN_L              0246 
           LOCAL                   ADDRESS         
           =====                   =======         
           PCREN                   0246 
           PCREN_H                 0247 
           PCREN_L                 0246 
    -------------------------------------------------------------------------
DATA16_AN
  Relative segment, address: 024A - 024B (0x2 bytes), align: 0
  Segment part 18. ROOT       Intra module refs:   system_setup
           ENTRY                   ADDRESS         REF BY
           =====                   =======         ======
           _A_PCSEL_L              024A 
           LOCAL                   ADDRESS         
           =====                   =======         
           PCSEL                   024A 
           PCSEL_H                 024B 
           PCSEL_L                 024A 
    -------------------------------------------------------------------------
DATA16_AN
  Relative segment, address: 0264 - 0265 (0x2 bytes), align: 0
  Segment part 20. ROOT       Intra module refs:   system_setup
           ENTRY                   ADDRESS         REF BY
           =====                   =======         ======
           _A_PDDIR_L              0264 
           LOCAL                   ADDRESS         
           =====                   =======         
           PDDIR                   0264 
           PDDIR_H                 0265 
           PDDIR_L                 0264 
    -------------------------------------------------------------------------
DATA16_AN
  Relative segment, address: 0266 - 0267 (0x2 bytes), align: 0
  Segment part 21. ROOT       Intra module refs:   system_setup
           ENTRY                   ADDRESS         REF BY
           =====                   =======         ======
           _A_PDREN_L              0266 
           LOCAL                   ADDRESS         
           =====                   =======         
           PDREN                   0266 
           PDREN_H                 0267 
           PDREN_L                 0266 
    -------------------------------------------------------------------------
DATA16_AN
  Relative segment, address: 026A - 026B (0x2 bytes), align: 0
  Segment part 22. ROOT       Intra module refs:   system_setup
           ENTRY                   ADDRESS         REF BY
           =====                   =======         ======
           _A_PDSEL_L              026A 
           LOCAL                   ADDRESS         
           =====                   =======         
           PDSEL                   026A 
           PDSEL_H                 026B 
           PDSEL_L                 026A 
    -------------------------------------------------------------------------
DATA16_AN
  Relative segment, address: 0282 - 0283 (0x2 bytes), align: 0
  Segment part 23. ROOT       Intra module refs:   system_setup
           ENTRY                   ADDRESS         REF BY
           =====                   =======         ======
           _A_PEOUT_L              0282 
           LOCAL                   ADDRESS         
           =====                   =======         
           PEOUT                   0282 
           PEOUT_H                 0283 
           PEOUT_L                 0282 
    -------------------------------------------------------------------------
DATA16_AN
  Relative segment, address: 0284 - 0285 (0x2 bytes), align: 0
  Segment part 24. ROOT       Intra module refs:   system_setup
           ENTRY                   ADDRESS         REF BY
           =====                   =======         ======
           _A_PEDIR_L              0284 
           LOCAL                   ADDRESS         
           =====                   =======         
           PEDIR                   0284 
           PEDIR_H                 0285 
           PEDIR_L                 0284 
    -------------------------------------------------------------------------
DATA16_AN
  Relative segment, address: 0286 - 0287 (0x2 bytes), align: 0
  Segment part 25. ROOT       Intra module refs:   system_setup
           ENTRY                   ADDRESS         REF BY
           =====                   =======         ======
           _A_PEREN_L              0286 
           LOCAL                   ADDRESS         
           =====                   =======         
           PEREN                   0286 
           PEREN_H                 0287 
           PEREN_L                 0286 
    -------------------------------------------------------------------------
DATA16_AN
  Relative segment, address: 028A - 028B (0x2 bytes), align: 0
  Segment part 26. ROOT       Intra module refs:   system_setup
           ENTRY                   ADDRESS         REF BY
           =====                   =======         ======
           _A_PESEL_L              028A 
           LOCAL                   ADDRESS         
           =====                   =======         
           PESEL                   028A 
           PESEL_H                 028B 
           PESEL_L                 028A 
    -------------------------------------------------------------------------
DATA16_AN
  Relative segment, address: 0322 - 0323 (0x2 bytes), align: 0
  Segment part 27. ROOT       Intra module refs:   system_setup
           ENTRY                   ADDRESS         REF BY
           =====                   =======         ======
           _A_PJOUT_L              0322 
           LOCAL                   ADDRESS         
           =====                   =======         
           PJOUT                   0322 
           PJOUT_H                 0323 
           PJOUT_L                 0322 
    -------------------------------------------------------------------------
DATA16_AN
  Relative segment, address: 0324 - 0325 (0x2 bytes), align: 0
  Segment part 28. ROOT       Intra module refs:   system_setup
           ENTRY                   ADDRESS         REF BY
           =====                   =======         ======
           _A_PJDIR_L              0324 
           LOCAL                   ADDRESS         
           =====                   =======         
           PJDIR                   0324 
           PJDIR_H                 0325 
           PJDIR_L                 0324 
    -------------------------------------------------------------------------
DATA16_AN
  Relative segment, address: 032A - 032B (0x2 bytes), align: 0
  Segment part 29. ROOT       Intra module refs:   system_setup
           ENTRY                   ADDRESS         REF BY
           =====                   =======         ======
           _A_PJSEL_L              032A 
           LOCAL                   ADDRESS         
           =====                   =======         
           PJSEL                   032A 
           PJSEL_H                 032B 
           PJSEL_L                 032A 
    -------------------------------------------------------------------------
DATA16_AN
  Relative segment, address: 0120 - 0121 (0x2 bytes), align: 0
  Segment part 30. ROOT       Intra module refs:   SetVCore (hal_pmm)
                                                   SetVCoreDown (hal_pmm)
                                                   SetVCoreUp (hal_pmm)
                                                   system_setup
           ENTRY                   ADDRESS         REF BY
           =====                   =======         ======
           _A_PMMCTL0_L            0120 
           LOCAL                   ADDRESS         
           =====                   =======         
           PMMCTL0                 0120 
           PMMCTL0_H               0121 
           PMMCTL0_L               0120 
    -------------------------------------------------------------------------
DATA16_AN
  Relative segment, address: 0124 - 0125 (0x2 bytes), align: 0
  Segment part 31. ROOT       Intra module refs:   SetVCoreDown (hal_pmm)
                                                   SetVCoreUp (hal_pmm)
                                                   system_setup
           ENTRY                   ADDRESS         REF BY
           =====                   =======         ======
           _A_SVSMHCTL_L           0124 
           LOCAL                   ADDRESS         
           =====                   =======         
           SVSMHCTL                0124 
           SVSMHCTL_H              0125 
           SVSMHCTL_L              0124 
    -------------------------------------------------------------------------
DATA16_AN
  Relative segment, address: 0102 - 0103 (0x2 bytes), align: 0
  Segment part 32. ROOT       Intra module refs:   set_clock_slow
           ENTRY                   ADDRESS         REF BY
           =====                   =======         ======
           _A_SFRIFG1_L            0102 
           LOCAL                   ADDRESS         
           =====                   =======         
           SFRIFG1                 0102 
           SFRIFG1_H               0103 
           SFRIFG1_L               0102 
    -------------------------------------------------------------------------
DATA16_AN
  Relative segment, address: 0160 - 0161 (0x2 bytes), align: 0
  Segment part 33. ROOT       Intra module refs:   set_clock_slow
           ENTRY                   ADDRESS         REF BY
           =====                   =======         ======
           _A_UCSCTL0_L            0160 
           LOCAL                   ADDRESS         
           =====                   =======         
           UCSCTL0                 0160 
           UCSCTL0_H               0161 
           UCSCTL0_L               0160 
    -------------------------------------------------------------------------
DATA16_AN
  Relative segment, address: 0162 - 0163 (0x2 bytes), align: 0
  Segment part 34. ROOT       Intra module refs:   set_clock_slow
           ENTRY                   ADDRESS         REF BY
           =====                   =======         ======
           _A_UCSCTL1_L            0162 
           LOCAL                   ADDRESS         
           =====                   =======         
           UCSCTL1                 0162 
           UCSCTL1_H               0163 
           UCSCTL1_L               0162 
    -------------------------------------------------------------------------
DATA16_AN
  Relative segment, address: 0164 - 0165 (0x2 bytes), align: 0
  Segment part 35. ROOT       Intra module refs:   set_clock_slow
           ENTRY                   ADDRESS         REF BY
           =====                   =======         ======
           _A_UCSCTL2_L            0164 
           LOCAL                   ADDRESS         
           =====                   =======         
           UCSCTL2                 0164 
           UCSCTL2_H               0165 
           UCSCTL2_L               0164 
    -------------------------------------------------------------------------
DATA16_AN
  Relative segment, address: 0168 - 0169 (0x2 bytes), align: 0
  Segment part 36. ROOT       Intra module refs:   set_clock_slow
           ENTRY                   ADDRESS         REF BY
           =====                   =======         ======
           _A_UCSCTL4_L            0168 
           LOCAL                   ADDRESS         
           =====                   =======         
           UCSCTL4                 0168 
           UCSCTL4_H               0169 
           UCSCTL4_L               0168 
    -------------------------------------------------------------------------
DATA16_AN
  Relative segment, address: 016A - 016B (0x2 bytes), align: 0
  Segment part 37. ROOT       Intra module refs:   set_clock_slow
           ENTRY                   ADDRESS         REF BY
           =====                   =======         ======
           _A_UCSCTL5_L            016A 
           LOCAL                   ADDRESS         
           =====                   =======         
           UCSCTL5                 016A 
           UCSCTL5_H               016B 
           UCSCTL5_L               016A 
    -------------------------------------------------------------------------
DATA16_AN
  Relative segment, address: 016C - 016D (0x2 bytes), align: 0
  Segment part 38. ROOT       Intra module refs:   set_clock_slow
           ENTRY                   ADDRESS         REF BY
           =====                   =======         ======
           _A_UCSCTL6_L            016C 
           LOCAL                   ADDRESS         
           =====                   =======         
           UCSCTL6                 016C 
           UCSCTL6_H               016D 
           UCSCTL6_L               016C 
    -------------------------------------------------------------------------
DATA16_AN
  Relative segment, address: 016E - 016F (0x2 bytes), align: 0
  Segment part 39. ROOT       Intra module refs:   set_clock_slow
           ENTRY                   ADDRESS         REF BY
           =====                   =======         ======
           _A_UCSCTL7_L            016E 
           LOCAL                   ADDRESS         
           =====                   =======         
           UCSCTL7                 016E 
           UCSCTL7_H               016F 
           UCSCTL7_L               016E 
    -------------------------------------------------------------------------
<CODE> 1 (was CODE)
  Relative segment, address: 8484 - 84CF (0x4c bytes), align: 1
  Segment part 46.            Intra module refs:   system_setup
           LOCAL                   ADDRESS         
           =====                   =======         
           set_clock_slow          8484 
               calls direct
    -------------------------------------------------------------------------
<CODE> 1 (was CODE)
  Relative segment, address: 653C - 667F (0x144 bytes), align: 1
  Segment part 47.
           ENTRY                   ADDRESS         REF BY
           =====                   =======         ======
           system_setup            653C            main (emeter-main)
               calls direct
    -------------------------------------------------------------------------
DATA20_Z
  Relative segment, address: 2436 - 2436 (0x1 bytes), align: 0
  Segment part 43.            Intra module refs:   aux_interrupt
           ENTRY                   ADDRESS         REF BY
           =====                   =======         ======
           present_power_source    2436 
    -------------------------------------------------------------------------
DATA20_Z
  Relative segment, address: 2437 - 2437 (0x1 bytes), align: 0
  Segment part 44.            Intra module refs:   aux_interrupt
           ENTRY                   ADDRESS         REF BY
           =====                   =======         ======
           power_sources_status    2437 
    -------------------------------------------------------------------------
DATA20_Z
  Relative segment, address: 242C - 242D (0x2 bytes), align: 1
  Segment part 45.            Intra module refs:   aux_interrupt
           ENTRY                   ADDRESS         REF BY
           =====                   =======         ======
           aux_ints                242C 
    -------------------------------------------------------------------------
ISR_CODE
  Relative segment, address: 440E - 445B (0x4e bytes), align: 1
  Segment part 48.            Intra module refs:   aux_interrupt::??INTVEC 102
           ENTRY                   ADDRESS         REF BY
           =====                   =======         ======
           aux_interrupt           440E 
               interrupt function
    -------------------------------------------------------------------------
INTVEC
  Common segment, address: FF80 - FFE7 (0x68 bytes), align: 1
  Segment part 41. ROOT 
           ENTRY                   ADDRESS         REF BY
           =====                   =======         ======
           aux_interrupt::??INTVEC 102
                                   FFE6 

    *************************************************************************

  FILE NAME : C:\Program Files (x86)\IAR Systems\Embedded Workbench 8.0\430\lib\dlib\dl430xllfn.r43
  LIBRARY MODULE, NAME : ?__dbg_break

  SEGMENTS IN THE MODULE
  ======================
<CODE> 1 (was CODE)
  Relative segment, address: 9326 - 9327 (0x2 bytes), align: 1
  Segment part 2.
           ENTRY                   ADDRESS         REF BY
           =====                   =======         ======
           __DebugBreak            9326            __exit (?__exit)

    -------------------------------------------------------------------------
  LIBRARY MODULE, NAME : ?__exit

  SEGMENTS IN THE MODULE
  ======================
<CODE> 1 (was CODE)
  Relative segment, address: 9050 - 9063 (0x14 bytes), align: 1
  Segment part 2.
           ENTRY                   ADDRESS         REF BY
           =====                   =======         ======
           __exit                  9050            Segment part 6 (?_exit)
                                                   _exit (?_exit)
               calls direct

    -------------------------------------------------------------------------
  LIBRARY MODULE, NAME : ?_exit

  SEGMENTS IN THE MODULE
  ======================
<CODE> 1 (was CODE)
  Relative segment, address: 931E, align: 1
  Segment part 0.
           ENTRY                   ADDRESS         REF BY
           =====                   =======         ======
           _exit                   931E            exit (?exit)
    -------------------------------------------------------------------------
<CODE> 1 (was CODE)
  Relative segment, address: 931E - 9321 (0x4 bytes), align: 1
  Segment part 6.             Intra module refs:   _exit

    -------------------------------------------------------------------------
  LIBRARY MODULE, NAME : ?cstart

  SEGMENTS IN THE MODULE
  ======================
CSTACK
  Relative segment, address: 3B6A, align: 1
  Segment part 1.
    -------------------------------------------------------------------------
CODE_I
  Relative segment, address: 1C00, align: 1
  Segment part 5.
    -------------------------------------------------------------------------
CODE_ID
  Relative segment, address: 9C34, align: 1
  Segment part 6.
    -------------------------------------------------------------------------
DATA20_Z
  Relative segment, address: 242E, align: 1
  Segment part 7.
    -------------------------------------------------------------------------
DATA20_I
  Relative segment, address: 1C02, align: 1
  Segment part 8.
    -------------------------------------------------------------------------
DATA20_ID
  Relative segment, address: 9C22, align: 1
  Segment part 9.
    -------------------------------------------------------------------------
DATA20_C
  Relative segment, address: 97A0, align: 1
  Segment part 10.
    -------------------------------------------------------------------------
DATA20_N
  Relative segment, address: 2438, align: 1
  Segment part 12.
    -------------------------------------------------------------------------
CSTART
  Relative segment, address: 4000 - 4003 (0x4 bytes), align: 1
  Segment part 15.
           ENTRY                   ADDRESS         REF BY
           =====                   =======         ======
           __program_start         4000            ?reset_vector (?reset_vector)
                                                   Absolute parts (?ABS_ENTRY_MOD)
           ?cstart_begin           4000 
    -------------------------------------------------------------------------
CSTART
  Relative segment, address: 4004 - 4013 (0x10 bytes), align: 1
  Segment part 22.
           ENTRY                   ADDRESS         REF BY
           =====                   =======         ======
           ?cstart_init_zero20     4004            ContSeqFase (metrology-background)
                                                   Contador4096 (emeter-main)
                                                   DetSeqFase (metrology-background)
                                                   ModoDisplay (emeter-main)
                                                   TempoBotao (emeter-main)
                                                   TempoDisplayOled (emeter-main)
                                                   TempoMapaMemoria (emeter-main)
                                                   adc_i_buffer (metrology-background)
                                                   adc_v_buffer (metrology-background)
                                                   aux_ints (emeter-setup)
                                                   auxadc (metrology-background)
                                                   dma_adc_buffer (metrology-background)
                                                   energy_consumed (emeter-main)
                                                   input_registers (emeter-main)
                                                   main::x (emeter-main)
                                                   metrology_state (metrology-foreground)
                                                   operating_mode (metrology-foreground)
                                                   ports (emeter-communication)
                                                   power_sources_status (emeter-setup)
                                                   present_power_source (emeter-setup)
                                                   raw_temperature_from_adc (metrology-background)
                                                   rtc_correction (emeter-rtc-c)
                                                   rtc_offset_correction (emeter-rtc-c)
                                                   rtc_offset_direction (emeter-rtc-c)
                                                   rtc_status (emeter-rtc-c)
                                                   sag_duration (emeter-main)
                                                   sag_events (emeter-main)
                                                   samples_per_second (metrology-background)
                                                   seconds (emeter-rtc-c)
                                                   swell_duration (emeter-main)
                                                   swell_events (emeter-main)
                                                   temperature_in_celsius (metrology-foreground)
                                                   vcc (metrology-background)
                                                   working_data (metrology-foreground)
    -------------------------------------------------------------------------
CSTART
  Relative segment, address: 4014 - 4027 (0x14 bytes), align: 1
  Segment part 23.
           ENTRY                   ADDRESS         REF BY
           =====                   =======         ======
           ?cstart_init_copy20     4014            oled_step (emeter-basic-oled)
                                                   send_reading_to_CC2530_for_IHD430::RF_Tx (emeter-communication)
    -------------------------------------------------------------------------
CSTART
  Relative segment, address: 4028 - 402F (0x8 bytes), align: 1
  Segment part 27.            Intra module refs:   Segment part 15
           ENTRY                   ADDRESS         REF BY
           =====                   =======         ======
           ?cstart_call_main       4028 
           ?cstart_end             4030 
    -------------------------------------------------------------------------
CODE_ID
  Relative segment, address: 9C34, align: 1
  Segment part 28.            Intra module refs:   Segment part 5

    -------------------------------------------------------------------------
  LIBRARY MODULE, NAME : ?reset_vector

  SEGMENTS IN THE MODULE
  ======================
RESET
  Relative segment, address: FFFE - FFFF (0x2 bytes), align: 1
  Segment part 0.
           ENTRY                   ADDRESS         REF BY
           =====                   =======         ======
           ?reset_vector           FFFE            Segment part 15 (?cstart)

    -------------------------------------------------------------------------
  LIBRARY MODULE, NAME : ?div64i

  SEGMENTS IN THE MODULE
  ======================
<CODE> 1 (was CODE)
  Relative segment, address: 75EC - 768D (0xa2 bytes), align: 1
  Segment part 2.             Intra module refs:   _Div64s
           ENTRY                   ADDRESS         REF BY
           =====                   =======         ======
           _Div64u                 75EC            _LitobLarge (?xprintflarge)
    -------------------------------------------------------------------------
<CODE> 1 (was CODE)
  Relative segment, address: 878C - 87A9 (0x1e bytes), align: 1
  Segment part 5.
           ENTRY                   ADDRESS         REF BY
           =====                   =======         ======
           _Div64s                 878C            ?Subroutine1 (metrology-foreground)
               calls direct
    -------------------------------------------------------------------------
<CODE> 1 (was CODE)
  Relative segment, address: 87AA - 87B3 (0xa bytes), align: 1
  Segment part 6.             Intra module refs:   _Div64s
    -------------------------------------------------------------------------
<CODE> 1 (was CODE)
  Relative segment, address: 87B4 - 87C5 (0x12 bytes), align: 1
  Segment part 8.             Intra module refs:   _Div64s
    -------------------------------------------------------------------------
<CODE> 1 (was CODE)
  Relative segment, address: 9138 - 9149 (0x12 bytes), align: 1
  Segment part 9.             Intra module refs:   Segment part 6
                                                   _Div64s
    -------------------------------------------------------------------------
<CODE> 1 (was CODE)
  Relative segment, address: 8EEC - 8F05 (0x1a bytes), align: 1
  Segment part 4.             Intra module refs:   _Div64u

    -------------------------------------------------------------------------
  LIBRARY MODULE, NAME : ?div

  SEGMENTS IN THE MODULE
  ======================
<CODE> 1 (was CODE)
  Relative segment, address: 900E - 9023 (0x16 bytes), align: 1
  Segment part 0.
           ENTRY                   ADDRESS         REF BY
           =====                   =======         ======
           div                     900E            _GenldLarge (?xprintflarge)

    -------------------------------------------------------------------------
  LIBRARY MODULE, NAME : ?exit

  SEGMENTS IN THE MODULE
  ======================
<CODE> 1 (was CODE)
  Relative segment, address: 9322 - 9325 (0x4 bytes), align: 1
  Segment part 2.
           ENTRY                   ADDRESS         REF BY
           =====                   =======         ======
           exit                    9322            Segment part 27 (?cstart)
               calls direct

    -------------------------------------------------------------------------
  LIBRARY MODULE, NAME : ?fabs

  SEGMENTS IN THE MODULE
  ======================
<CODE> 1 (was CODE)
  Relative segment, address: 889E - 88CF (0x32 bytes), align: 1
  Segment part 2.
           ENTRY                   ADDRESS         REF BY
           =====                   =======         ======
           fabs                    889E            ?Subroutine1 (emeter-main)
               calls direct

    -------------------------------------------------------------------------
  LIBRARY MODULE, NAME : ?Mul32fHw32

  SEGMENTS IN THE MODULE
  ======================
<CODE> 1 (was CODE)
  Relative segment, address: 6B54 - 6C69 (0x116 bytes), align: 1
  Segment part 0.
           ENTRY                   ADDRESS         REF BY
           =====                   =======         ======
           ?Mul32fHw32             6B54            _LdtobLarge (?xprintflarge)
                                                   scale (?xprintflarge)

    -------------------------------------------------------------------------
  LIBRARY MODULE, NAME : ?fmax

  SEGMENTS IN THE MODULE
  ======================
<CODE> 1 (was CODE)
  Relative segment, address: 82F2 - 8343 (0x52 bytes), align: 1
  Segment part 2.
           ENTRY                   ADDRESS         REF BY
           =====                   =======         ======
           fmax                    82F2            check_voltage_ranges (emeter-main)
               calls direct

    -------------------------------------------------------------------------
  LIBRARY MODULE, NAME : ?Cast32f32i

  SEGMENTS IN THE MODULE
  ======================
<CODE> 1 (was CODE)
  Relative segment, address: 78EC - 78FF (0x14 bytes), align: 1
  Segment part 0.
           ENTRY                   ADDRESS         REF BY
           =====                   =======         ======
           _Cast32sto32f           78EC            ?Subroutine10 (emeter-main)
                                                   ?Subroutine11 (emeter-main)
                                                   ?Subroutine6 (emeter-main)
                                                   Oled_display_valor (emeter-oled)
                                                   update_input_registers (emeter-main)
    -------------------------------------------------------------------------
<CODE> 1 (was CODE)
  Relative segment, address: 7900 - 797D (0x7e bytes), align: 1
  Segment part 1.             Intra module refs:   _Cast32sto32f
           ENTRY                   ADDRESS         REF BY
           =====                   =======         ======
           _Cast32uto32f           7900            _LdtobLarge (?xprintflarge)

    -------------------------------------------------------------------------
  LIBRARY MODULE, NAME : _Cast32fto32u

  SEGMENTS IN THE MODULE
  ======================
<CODE> 1 (was CODE)
  Relative segment, address: 9276 - 9281 (0xc bytes), align: 1
  Segment part 0.
           ENTRY                   ADDRESS         REF BY
           =====                   =======         ======
           _Cast32fto32u           9276            _LdtobLarge (?xprintflarge)

    -------------------------------------------------------------------------
  LIBRARY MODULE, NAME : ?FLT_Extract

  SEGMENTS IN THE MODULE
  ======================
<CODE> 1 (was CODE)
  Relative segment, address: 8438 - 8483 (0x4c bytes), align: 1
  Segment part 0.
           ENTRY                   ADDRESS         REF BY
           =====                   =======         ======
           ?FLT_Extract            8438            _Cast32fto32u (_Cast32fto32u)

    -------------------------------------------------------------------------
  LIBRARY MODULE, NAME : ?Cast32f64i

  SEGMENTS IN THE MODULE
  ======================
<CODE> 1 (was CODE)
  Relative segment, address: 703E - 7059 (0x1c bytes), align: 1
  Segment part 0.
           ENTRY                   ADDRESS         REF BY
           =====                   =======         ======
           _Cast64sto32f           703E            ?Subroutine8 (emeter-main)
    -------------------------------------------------------------------------
<CODE> 1 (was CODE)
  Relative segment, address: 705A - 7117 (0xbe bytes), align: 1
  Segment part 1.             Intra module refs:   _Cast64sto32f
           ENTRY                   ADDRESS         REF BY
           =====                   =======         ======
           _Cast64uto32f           705A 

    -------------------------------------------------------------------------
  LIBRARY MODULE, NAME : ?FLT_EQ

  SEGMENTS IN THE MODULE
  ======================
<CODE> 1 (was CODE)
  Relative segment, address: 8962 - 8991 (0x30 bytes), align: 1
  Segment part 0.
           ENTRY                   ADDRESS         REF BY
           =====                   =======         ======
           ?FLT_EQ                 8962            fmax (?fmax)

    -------------------------------------------------------------------------
  LIBRARY MODULE, NAME : ?FLT_GE

  SEGMENTS IN THE MODULE
  ======================
<CODE> 1 (was CODE)
  Relative segment, address: 81F4 - 8249 (0x56 bytes), align: 1
  Segment part 0.
           ENTRY                   ADDRESS         REF BY
           =====                   =======         ======
           ?FLT_GE                 81F4            ?Subroutine3 (emeter-main)
                                                   check_voltage_ranges (emeter-main)

    -------------------------------------------------------------------------
  LIBRARY MODULE, NAME : ?FLT_LT

  SEGMENTS IN THE MODULE
  ======================
<CODE> 1 (was CODE)
  Relative segment, address: 8396 - 83E7 (0x52 bytes), align: 1
  Segment part 0.
           ENTRY                   ADDRESS         REF BY
           =====                   =======         ======
           ?FLT_LT                 8396            _LdtobLarge (?xprintflarge)
                                                   check_voltage_ranges (emeter-main)
                                                   fabs (?fabs)
                                                   fmax (?fmax)

    -------------------------------------------------------------------------
  LIBRARY MODULE, NAME : _Div32f

  SEGMENTS IN THE MODULE
  ======================
<CODE> 1 (was CODE)
  Relative segment, address: 68F8 - 6A27 (0x130 bytes), align: 1
  Segment part 0.
           ENTRY                   ADDRESS         REF BY
           =====                   =======         ======
           _Div32f                 68F8            Oled_display_valor (emeter-oled)
                                                   _LdtobLarge (?xprintflarge)
                                                   check_voltage_ranges (emeter-main)

    -------------------------------------------------------------------------
  LIBRARY MODULE, NAME : _Add32f

  SEGMENTS IN THE MODULE
  ======================
<CODE> 1 (was CODE)
  Relative segment, address: 63D8 - 63DB (0x4 bytes), align: 1
  Segment part 0.
           ENTRY                   ADDRESS         REF BY
           =====                   =======         ======
           _Sub32f                 63D8            ?Subroutine1 (emeter-main)
                                                   _LdtobLarge (?xprintflarge)
    -------------------------------------------------------------------------
<CODE> 1 (was CODE)
  Relative segment, address: 63DC - 653B (0x160 bytes), align: 1
  Segment part 1.             Intra module refs:   _Sub32f
           ENTRY                   ADDRESS         REF BY
           =====                   =======         ======
           _Add32f                 63DC            check_voltage_ranges (emeter-main)

    -------------------------------------------------------------------------
  LIBRARY MODULE, NAME : ?DivMod816u

  SEGMENTS IN THE MODULE
  ======================
<CODE> 1 (was CODE)
  Relative segment, address: 8F86 - 8F9D (0x18 bytes), align: 1
  Segment part 1.
           ENTRY                   ADDRESS         REF BY
           =====                   =======         ======
           ?DivMod16u              8F86            ?DivMod16s (?DivMod816s)

    -------------------------------------------------------------------------
  LIBRARY MODULE, NAME : ?DivMod816s

  SEGMENTS IN THE MODULE
  ======================
<CODE> 1 (was CODE)
  Relative segment, address: 89C2 - 89F1 (0x30 bytes), align: 1
  Segment part 1.
           ENTRY                   ADDRESS         REF BY
           =====                   =======         ======
           ?DivMod16s              89C2            div (?div)
                                                   div48 (div48)

    -------------------------------------------------------------------------
  LIBRARY MODULE, NAME : ?DivMod32u

  SEGMENTS IN THE MODULE
  ======================
<CODE> 1 (was CODE)
  Relative segment, address: 8992 - 89C1 (0x30 bytes), align: 1
  Segment part 0.
           ENTRY                   ADDRESS         REF BY
           =====                   =======         ======
           ?DivMod32u              8992            ?DivMod32s (?DivMod32s)
                                                   _LdtobLarge (?xprintflarge)
                                                   sag_swell_control (metrology-foreground)
                                                   serial_configure (emeter-communication)

    -------------------------------------------------------------------------
  LIBRARY MODULE, NAME : ?DivMod32s

  SEGMENTS IN THE MODULE
  ======================
<CODE> 1 (was CODE)
  Relative segment, address: 85DA - 8619 (0x40 bytes), align: 1
  Segment part 0.
           ENTRY                   ADDRESS         REF BY
           =====                   =======         ======
           ?DivMod32s              85DA            ?Subroutine3 (metrology-foreground)
                                                   _LdtobLarge (?xprintflarge)
                                                   calculate_phase_readings (metrology-foreground)
                                                   div48 (div48)
                                                   evaluate_rms_current (metrology-foreground)
                                                   main (emeter-main)

    -------------------------------------------------------------------------
  LIBRARY MODULE, NAME : ?ShiftLeft32

  SEGMENTS IN THE MODULE
  ======================
<CODE> 1 (was CODE)
  Relative segment, address: 8F3A - 8F3D (0x4 bytes), align: 1
  Segment part 2.
           ENTRY                   ADDRESS         REF BY
           =====                   =======         ======
           ?ShiftLeft32_6          8F3A            energy_update (emeter-main)
    -------------------------------------------------------------------------
<CODE> 1 (was CODE)
  Relative segment, address: 8F3E - 8F41 (0x4 bytes), align: 1
  Segment part 3.             Intra module refs:   ?ShiftLeft32_6
           ENTRY                   ADDRESS         REF BY
           =====                   =======         ======
           ?ShiftLeft32_5          8F3E 
    -------------------------------------------------------------------------
<CODE> 1 (was CODE)
  Relative segment, address: 8F42 - 8F45 (0x4 bytes), align: 1
  Segment part 4.             Intra module refs:   ?ShiftLeft32_5
           ENTRY                   ADDRESS         REF BY
           =====                   =======         ======
           ?ShiftLeft32_4          8F42 
    -------------------------------------------------------------------------
<CODE> 1 (was CODE)
  Relative segment, address: 8F46 - 8F53 (0xe bytes), align: 1
  Segment part 5.             Intra module refs:   ?ShiftLeft32_4
           ENTRY                   ADDRESS         REF BY
           =====                   =======         ======
           ?ShiftLeft32_3          8F46            calculate_phase_readings (metrology-foreground)
                                                   energy_update (emeter-main)
                                                   evaluate_rms_voltage (metrology-foreground)

    -------------------------------------------------------------------------
  LIBRARY MODULE, NAME : ?ShiftRight32s

  SEGMENTS IN THE MODULE
  ======================
<CODE> 1 (was CODE)
  Relative segment, address: 9102 - 9105 (0x4 bytes), align: 1
  Segment part 4.
           ENTRY                   ADDRESS         REF BY
           =====                   =======         ======
           ?ShiftRight32s_4        9102            estimate_current_rtc_correction (emeter-rtc-c)
                                                   serial_configure (emeter-communication)
    -------------------------------------------------------------------------
<CODE> 1 (was CODE)
  Relative segment, address: 9106 - 9109 (0x4 bytes), align: 1
  Segment part 5.             Intra module refs:   ?ShiftRight32s_4
           ENTRY                   ADDRESS         REF BY
           =====                   =======         ======
           ?ShiftRight32s_3        9106 
    -------------------------------------------------------------------------
<CODE> 1 (was CODE)
  Relative segment, address: 910A - 9113 (0xa bytes), align: 1
  Segment part 6.             Intra module refs:   ?ShiftRight32s_3
           ENTRY                   ADDRESS         REF BY
           =====                   =======         ======
           ?ShiftRight32s_2        910A 

    -------------------------------------------------------------------------
  LIBRARY MODULE, NAME : ?ShiftRight32s_8n

  SEGMENTS IN THE MODULE
  ======================
<CODE> 1 (was CODE)
  Relative segment, address: 9216 - 9221 (0xc bytes), align: 1
  Segment part 6.
           ENTRY                   ADDRESS         REF BY
           =====                   =======         ======
           ?ShiftRight32s_8        9216            sag_swell_control (metrology-foreground)

    -------------------------------------------------------------------------
  LIBRARY MODULE, NAME : ?ShiftRight32u_8n

  SEGMENTS IN THE MODULE
  ======================
<CODE> 1 (was CODE)
  Relative segment, address: 90A0 - 90A3 (0x4 bytes), align: 1
  Segment part 4.
           ENTRY                   ADDRESS         REF BY
           =====                   =======         ======
           ?ShiftRight32u_10       90A0            evaluate_rms_voltage (metrology-foreground)
    -------------------------------------------------------------------------
<CODE> 1 (was CODE)
  Relative segment, address: 90A4 - 90A7 (0x4 bytes), align: 1
  Segment part 5.             Intra module refs:   ?ShiftRight32u_10
           ENTRY                   ADDRESS         REF BY
           =====                   =======         ======
           ?ShiftRight32u_9        90A4 
    -------------------------------------------------------------------------
<CODE> 1 (was CODE)
  Relative segment, address: 90A8 - 90B3 (0xc bytes), align: 1
  Segment part 6.             Intra module refs:   ?ShiftRight32u_9
           ENTRY                   ADDRESS         REF BY
           =====                   =======         ======
           ?ShiftRight32u_8        90A8 

    -------------------------------------------------------------------------
  LIBRARY MODULE, NAME : ?ShiftRight64s_n

  SEGMENTS IN THE MODULE
  ======================
<CODE> 1 (was CODE)
  Relative segment, address: 87C6 - 87CD (0x8 bytes), align: 1
  Segment part 0.
           ENTRY                   ADDRESS         REF BY
           =====                   =======         ======
           ?ShiftRight64s_7        87C6            evaluate_reactive_power (metrology-foreground)
    -------------------------------------------------------------------------
<CODE> 1 (was CODE)
  Relative segment, address: 87CE - 87D5 (0x8 bytes), align: 1
  Segment part 1.             Intra module refs:   ?ShiftRight64s_7
           ENTRY                   ADDRESS         REF BY
           =====                   =======         ======
           ?ShiftRight64s_6        87CE 
    -------------------------------------------------------------------------
<CODE> 1 (was CODE)
  Relative segment, address: 87D6 - 87DD (0x8 bytes), align: 1
  Segment part 2.             Intra module refs:   ?ShiftRight64s_6
           ENTRY                   ADDRESS         REF BY
           =====                   =======         ======
           ?ShiftRight64s_5        87D6 
    -------------------------------------------------------------------------
<CODE> 1 (was CODE)
  Relative segment, address: 87DE - 87E5 (0x8 bytes), align: 1
  Segment part 3.             Intra module refs:   ?ShiftRight64s_5
           ENTRY                   ADDRESS         REF BY
           =====                   =======         ======
           ?ShiftRight64s_4        87DE 
    -------------------------------------------------------------------------
<CODE> 1 (was CODE)
  Relative segment, address: 87E6 - 87ED (0x8 bytes), align: 1
  Segment part 4.             Intra module refs:   ?ShiftRight64s_4
           ENTRY                   ADDRESS         REF BY
           =====                   =======         ======
           ?ShiftRight64s_3        87E6 
    -------------------------------------------------------------------------
<CODE> 1 (was CODE)
  Relative segment, address: 87EE - 87FF (0x12 bytes), align: 1
  Segment part 5.             Intra module refs:   ?ShiftRight64s_3
           ENTRY                   ADDRESS         REF BY
           =====                   =======         ======
           ?ShiftRight64s_2        87EE 

    -------------------------------------------------------------------------
  LIBRARY MODULE, NAME : ?memchr

  SEGMENTS IN THE MODULE
  ======================
<CODE> 1 (was CODE)
  Relative segment, address: 8E0A - 8E27 (0x1e bytes), align: 1
  Segment part 2.
           ENTRY                   ADDRESS         REF BY
           =====                   =======         ======
           __iar_Memchr            8E0A            _PrintfLarge (?xprintflarge)

    -------------------------------------------------------------------------
  LIBRARY MODULE, NAME : ?memcpy

  SEGMENTS IN THE MODULE
  ======================
<CODE> 1 (was CODE)
  Relative segment, address: 8EB6 - 8ED1 (0x1c bytes), align: 1
  Segment part 2.
           ENTRY                   ADDRESS         REF BY
           =====                   =======         ======
           memcpy                  8EB6            _GenldLarge (?xprintflarge)
                                                   _LdtobLarge (?xprintflarge)
                                                   __data20_memcpy (?memzero)
                                                   process_preset_single_reg (emeter-dlt645)
                                                   process_read_inp_reg (emeter-dlt645)

    -------------------------------------------------------------------------
  LIBRARY MODULE, NAME : ?CopyMemoryBytes20

  SEGMENTS IN THE MODULE
  ======================
<CODE> 1 (was CODE)
  Relative segment, address: 9078 - 908B (0x14 bytes), align: 1
  Segment part 0.
           ENTRY                   ADDRESS         REF BY
           =====                   =======         ======
           ?CopyMemoryBytes20      9078            Oled_display_valor (emeter-oled)

    -------------------------------------------------------------------------
  LIBRARY MODULE, NAME : ?memset

  SEGMENTS IN THE MODULE
  ======================
<CODE> 1 (was CODE)
  Relative segment, address: 8E46 - 8E61 (0x1c bytes), align: 1
  Segment part 2.
           ENTRY                   ADDRESS         REF BY
           =====                   =======         ======
           memset                  8E46            calculate_phase_readings (metrology-foreground)
                                                   dlt645_service (emeter-dlt645)

    -------------------------------------------------------------------------
  LIBRARY MODULE, NAME : ?memzero

  SEGMENTS IN THE MODULE
  ======================
<CODE> 1 (was CODE)
  Relative segment, address: 8F9E - 8FB5 (0x18 bytes), align: 1
  Segment part 5.
           ENTRY                   ADDRESS         REF BY
           =====                   =======         ======
           __data20_memzero        8F9E            ?cstart_init_zero20 (?cstart)
    -------------------------------------------------------------------------
<CODE> 1 (was CODE)
  Relative segment, address: 931A - 931D (0x4 bytes), align: 1
  Segment part 6.
           ENTRY                   ADDRESS         REF BY
           =====                   =======         ======
           __data20_memcpy         931A            ?cstart_init_copy20 (?cstart)
               calls direct

    -------------------------------------------------------------------------
  LIBRARY MODULE, NAME : ?mul32s32sto64i

  SEGMENTS IN THE MODULE
  ======================
<CODE> 1 (was CODE)
  Relative segment, address: 8D66 - 8D87 (0x22 bytes), align: 1
  Segment part 2.
           ENTRY                   ADDRESS         REF BY
           =====                   =======         ======
           _Mul32s32sto64i         8D66            calculate_phase_readings (metrology-foreground)
                                                   integrate_power_to_energy (metrology-foreground)
               calls direct

    -------------------------------------------------------------------------
  LIBRARY MODULE, NAME : ?Mul8Hw

  SEGMENTS IN THE MODULE
  ======================
<CODE> 1 (was CODE)
  Relative segment, address: 8DAA - 8DAD (0x4 bytes), align: 1
  Segment part 0.
           ENTRY                   ADDRESS         REF BY
           =====                   =======         ======
           ?Mul8Hw                 8DAA            _LitobLarge (?xprintflarge)
    -------------------------------------------------------------------------
<CODE> 1 (was CODE)
  Relative segment, address: 8DAE - 8DC9 (0x1c bytes), align: 1
  Segment part 1.             Intra module refs:   ?Mul8Hw
           ENTRY                   ADDRESS         REF BY
           =====                   =======         ======
           ?Mul16Hw                8DAE 
           ?Mul16to32uHw           8DAE 

    -------------------------------------------------------------------------
  LIBRARY MODULE, NAME : ?Mul16to32sHw

  SEGMENTS IN THE MODULE
  ======================
<CODE> 1 (was CODE)
  Relative segment, address: 8E7E - 8E99 (0x1c bytes), align: 1
  Segment part 0.
           ENTRY                   ADDRESS         REF BY
           =====                   =======         ======
           ?Mul16to32sHw           8E7E            ?Subroutine0 (metrology-readings)
                                                   ?Subroutine2 (metrology-setup)
                                                   _LdtobLarge (?xprintflarge)
                                                   calculate_phase_readings (metrology-foreground)

    -------------------------------------------------------------------------
  LIBRARY MODULE, NAME : ?Mul32Hw32

  SEGMENTS IN THE MODULE
  ======================
<CODE> 1 (was CODE)
  Relative segment, address: 8CFA - 8D1D (0x24 bytes), align: 1
  Segment part 0.
           ENTRY                   ADDRESS         REF BY
           =====                   =======         ======
           ?Mul32Hw32              8CFA            calculate_phase_readings (metrology-foreground)
                                                   div48 (div48)
                                                   estimate_current_rtc_correction (emeter-rtc-c)
                                                   evaluate_power_factor (metrology-foreground)
                                                   evaluate_reactive_power (metrology-foreground)

    -------------------------------------------------------------------------
  LIBRARY MODULE, NAME : ?Mul32u32uto64iHw32

  SEGMENTS IN THE MODULE
  ======================
<CODE> 1 (was CODE)
  Relative segment, address: 8AA6 - 8AD1 (0x2c bytes), align: 1
  Segment part 0.
           ENTRY                   ADDRESS         REF BY
           =====                   =======         ======
           ?Mul32u32uto64iHw32     8AA6            _Mul32s32sto64i (?mul32s32sto64i)

    -------------------------------------------------------------------------
  LIBRARY MODULE, NAME : ?Mul64Hw32

  SEGMENTS IN THE MODULE
  ======================
<CODE> 1 (was CODE)
  Relative segment, address: 819C - 81F3 (0x58 bytes), align: 1
  Segment part 0.
           ENTRY                   ADDRESS         REF BY
           =====                   =======         ======
           ?Mul64Hw32              819C            ?Subroutine2 (metrology-foreground)
                                                   sag_swell_control (metrology-foreground)

    -------------------------------------------------------------------------
  LIBRARY MODULE, NAME : ?sprintf

  SEGMENTS IN THE MODULE
  ======================
<CODE> 1 (was CODE)
  Relative segment, address: 8750 - 878B (0x3c bytes), align: 1
  Segment part 2.
           ENTRY                   ADDRESS         REF BY
           =====                   =======         ======
           sprintf                 8750            Oled_display_valor (emeter-oled)
                                                   oled_date_temp (emeter-basic-oled)
                                                   update_oled (emeter-basic-oled)
               calls direct

    -------------------------------------------------------------------------
  LIBRARY MODULE, NAME : ?strchr

  SEGMENTS IN THE MODULE
  ======================
<CODE> 1 (was CODE)
  Relative segment, address: 9208 - 9215 (0xe bytes), align: 1
  Segment part 2.
           ENTRY                   ADDRESS         REF BY
           =====                   =======         ======
           __iar_Strchr            9208            _PrintfLarge (?xprintflarge)

    -------------------------------------------------------------------------
  LIBRARY MODULE, NAME : ?strlen

  SEGMENTS IN THE MODULE
  ======================
<CODE> 1 (was CODE)
  Relative segment, address: 8DEA - 8E09 (0x20 bytes), align: 1
  Segment part 2.
           ENTRY                   ADDRESS         REF BY
           =====                   =======         ======
           strlen                  8DEA            Oled_titulo (emeter-oled)
                                                   _PrintfLarge (?xprintflarge)

    -------------------------------------------------------------------------
  LIBRARY MODULE, NAME : ?xdtest

  SEGMENTS IN THE MODULE
  ======================
<CODE> 1 (was CODE)
  Relative segment, address: 8D42 - 8D65 (0x24 bytes), align: 1
  Segment part 2.
           ENTRY                   ADDRESS         REF BY
           =====                   =======         ======
           __iar_Dtest             8D42            fmax (?fmax)

    -------------------------------------------------------------------------
  LIBRARY MODULE, NAME : ?xdunscal

  SEGMENTS IN THE MODULE
  ======================
<CODE> 1 (was CODE)
  Relative segment, address: 84D0 - 8517 (0x48 bytes), align: 1
  Segment part 2.
           ENTRY                   ADDRESS         REF BY
           =====                   =======         ======
           __iar_Dunscale          84D0            _LdtobLarge (?xprintflarge)

    -------------------------------------------------------------------------
  LIBRARY MODULE, NAME : ?xprintflarge

  SEGMENTS IN THE MODULE
  ======================
<CODE> 1 (was CODE)
  Relative segment, address: 5258 - 570D (0x4b6 bytes), align: 1
  Segment part 23.
           ENTRY                   ADDRESS         REF BY
           =====                   =======         ======
           _PrintfLarge            5258            sprintf (?sprintf)
               calls direct
    -------------------------------------------------------------------------
<CODE> 1 (was CODE)
  Relative segment, address: 91FA - 9207 (0xe bytes), align: 1
  Segment part 25.            Intra module refs:   _PrintfLarge
    -------------------------------------------------------------------------
<CODE> 1 (was CODE)
  Relative segment, address: 90C8 - 90CD (0x6 bytes), align: 1
  Segment part 26.            Intra module refs:   _PrintfLarge
    -------------------------------------------------------------------------
<CODE> 1 (was CODE)
  Relative segment, address: 90CE - 90DB (0xe bytes), align: 1
  Segment part 27.            Intra module refs:   Segment part 26
                                                   _PrintfLarge
    -------------------------------------------------------------------------
<CODE> 1 (was CODE)
  Relative segment, address: 445C - 44DB (0x80 bytes), align: 1
  Segment part 8.             Intra module refs:   _PrintfLarge
           LOCAL                   ADDRESS         
           =====                   =======         
           LoadInt                 445C 
    -------------------------------------------------------------------------
<CODE> 1 (was CODE)
  Relative segment, address: 44DC - 44ED (0x12 bytes), align: 1
  Segment part 9.             Intra module refs:   LoadInt
    -------------------------------------------------------------------------
<CODE> 1 (was CODE)
  Relative segment, address: 44EE - 475B (0x26e bytes), align: 1
  Segment part 10.            Intra module refs:   _LdtobLarge
           LOCAL                   ADDRESS         
           =====                   =======         
           _GenldLarge             44EE 
               calls direct
    -------------------------------------------------------------------------
<CODE> 1 (was CODE)
  Relative segment, address: 475C - 476B (0x10 bytes), align: 1
  Segment part 11.            Intra module refs:   _GenldLarge
    -------------------------------------------------------------------------
<CODE> 1 (was CODE)
  Relative segment, address: 476C - 477B (0x10 bytes), align: 1
  Segment part 12.            Intra module refs:   _GenldLarge
    -------------------------------------------------------------------------
<CODE> 1 (was CODE)
  Relative segment, address: 477C - 4789 (0xe bytes), align: 1
  Segment part 13.            Intra module refs:   _GenldLarge
    -------------------------------------------------------------------------
<CODE> 1 (was CODE)
  Relative segment, address: 478A - 478F (0x6 bytes), align: 1
  Segment part 14.            Intra module refs:   _GenldLarge
    -------------------------------------------------------------------------
<CODE> 1 (was CODE)
  Relative segment, address: 4790 - 479F (0x10 bytes), align: 1
  Segment part 15.            Intra module refs:   Segment part 14
                                                   _GenldLarge
    -------------------------------------------------------------------------
<CODE> 1 (was CODE)
  Relative segment, address: 47A0 - 47B1 (0x12 bytes), align: 1
  Segment part 16.            Intra module refs:   _GenldLarge
    -------------------------------------------------------------------------
<CODE> 1 (was CODE)
  Relative segment, address: 47B2 - 47D5 (0x24 bytes), align: 1
  Segment part 17.            Intra module refs:   _GenldLarge
    -------------------------------------------------------------------------
<CODE> 1 (was CODE)
  Relative segment, address: 47D6 - 4817 (0x42 bytes), align: 1
  Segment part 18.            Intra module refs:   _LdtobLarge
           LOCAL                   ADDRESS         
           =====                   =======         
           scale                   47D6 
               calls direct
    -------------------------------------------------------------------------
<CODE> 1 (was CODE)
  Relative segment, address: 4818 - 4A71 (0x25a bytes), align: 1
  Segment part 19.            Intra module refs:   _PrintfLarge
           LOCAL                   ADDRESS         
           =====                   =======         
           _LdtobLarge             4818 
               calls direct
    -------------------------------------------------------------------------
<CODE> 1 (was CODE)
  Relative segment, address: 4A72 - 4C2F (0x1be bytes), align: 1
  Segment part 20.            Intra module refs:   _PrintfLarge
           LOCAL                   ADDRESS         
           =====                   =======         
           _LitobLarge             4A72 
               calls direct
    -------------------------------------------------------------------------
<CODE> 1 (was CODE)
  Relative segment, address: 4C30 - 4C41 (0x12 bytes), align: 1
  Segment part 21.            Intra module refs:   _LitobLarge
    -------------------------------------------------------------------------
<CODE> 1 (was CODE)
  Relative segment, address: 4C42 - 4C4B (0xa bytes), align: 1
  Segment part 22.            Intra module refs:   LoadInt
                                                   _LitobLarge
                                                   _PrintfLarge
    -------------------------------------------------------------------------
<CODE> 1 (was CODE)
  Relative segment, address: 8932 - 8961 (0x30 bytes), align: 1
  Segment part 32.            Intra module refs:   Segment part 27
           LOCAL                   ADDRESS         
           =====                   =======         
           pad                     8932 
               calls direct
    -------------------------------------------------------------------------
<CODE> 1 (was CODE)
  Relative segment, address: 8D1E - 8D41 (0x24 bytes), align: 1
  Segment part 33.            Intra module refs:   _PrintfLarge
                                                   _PutcharsLarge
           LOCAL                   ADDRESS         
           =====                   =======         
           _PutcharLarge           8D1E 
               calls indirect
    -------------------------------------------------------------------------
<CODE> 1 (was CODE)
  Relative segment, address: 8C3C - 8C61 (0x26 bytes), align: 1
  Segment part 34.            Intra module refs:   Segment part 25
                                                   pad
           LOCAL                   ADDRESS         
           =====                   =======         
           _PutcharsLarge          8C3C 
               calls direct
    -------------------------------------------------------------------------
<CODE> 1 (was CODE)
  Relative segment, address: 91D0 - 91DD (0xe bytes), align: 1
  Segment part 24.            Intra module refs:   _PrintfLarge
    -------------------------------------------------------------------------
<CODE> 1 (was CODE)
  Relative segment, address: 9126 - 9137 (0x12 bytes), align: 1
  Segment part 28.            Intra module refs:   _PrintfLarge
    -------------------------------------------------------------------------
<CODE> 1 (was CODE)
  Relative segment, address: 9064 - 9077 (0x14 bytes), align: 1
  Segment part 29.            Intra module refs:   _PrintfLarge
    -------------------------------------------------------------------------
<CODE> 1 (was CODE)
  Relative segment, address: 8800 - 8837 (0x38 bytes), align: 1
  Segment part 30.            Intra module refs:   _PrintfLarge
    -------------------------------------------------------------------------
<CODE> 1 (was CODE)
  Relative segment, address: 922E - 9239 (0xc bytes), align: 1
  Segment part 31.            Intra module refs:   Segment part 30
    -------------------------------------------------------------------------
DATA20_C
  Relative segment, address: 9C07 - 9C0D (0x7 bytes), align: 0
  Segment part 2.             Intra module refs:   _PrintfLarge
    -------------------------------------------------------------------------
DATA20_C
  Relative segment, address: 9C0E - 9C11 (0x4 bytes), align: 0
  Segment part 3.             Intra module refs:   _LdtobLarge
    -------------------------------------------------------------------------
DATA20_C
  Relative segment, address: 9C12 - 9C15 (0x4 bytes), align: 0
  Segment part 4.             Intra module refs:   _LdtobLarge
    -------------------------------------------------------------------------
DATA20_C
  Relative segment, address: 9C16 - 9C19 (0x4 bytes), align: 0
  Segment part 5.             Intra module refs:   _LdtobLarge
    -------------------------------------------------------------------------
DATA20_C
  Relative segment, address: 9C1A - 9C1D (0x4 bytes), align: 0
  Segment part 6.             Intra module refs:   _LdtobLarge
    -------------------------------------------------------------------------
DATA20_C
  Relative segment, address: 9C1E - 9C1F (0x2 bytes), align: 0
  Segment part 7.             Intra module refs:   _GenldLarge

    -------------------------------------------------------------------------
  LIBRARY MODULE, NAME : ?xsprout

  SEGMENTS IN THE MODULE
  ======================
<CODE> 1 (was CODE)
  Relative segment, address: 91C2 - 91CF (0xe bytes), align: 1
  Segment part 2.
           ENTRY                   ADDRESS         REF BY
           =====                   =======         ======
           _SProut                 91C2            sprintf (?sprintf)




                ****************************************
                *                                      *
                *      SEGMENTS IN ADDRESS ORDER       *
                *                                      *
                ****************************************


SEGMENT              SPACE    START ADDRESS   END ADDRESS     SIZE  TYPE  ALIGN
=======              =====    =============   ===========     ====  ====  =====
DATA16_AN                              0102 - 0103               2   rel    0
                                       0120 - 0121               2 
                                       0124 - 0127               4 
                                       012C - 012F               4 
                                       0140 - 0141               2 
                                       0144 - 0145               2 
                                       015C - 015D               2 
                                       0160 - 0165               6 
                                       0168 - 016F               8 
                                       01B0 - 01B1               2 
                                       0200 - 0207               8 
                                       020A - 020B               2 
                                       0222 - 0227               6 
                                       022A - 022B               2 
                                       0242 - 0247               6 
                                       024A - 024B               2 
                                       0262 - 0267               6 
                                       026A - 026B               2 
                                       0282 - 0287               6 
                                       028A - 028B               2 
                                       0322 - 0325               4 
                                       032A - 032B               2 
                                       04A0 - 04A7               8 
                                       04AE - 04B7               A 
                                       04C2 - 04C3               2 
                                       04C8 - 04C9               2 
                                       04D0 - 04D7               8 
                                       04E0 - 04EB               C 
                                       0500 - 0501               2 
                                       050E - 0511               4 
                                       0520 - 052B               C 
                                       0530 - 0531               2 
                                       05C0 - 05C3               4 
                                       05C6 - 05C9               4 
                                       05CC - 05CF               4 
                                       05DA - 05E3               A 
                                       05E6 - 05E9               4 
                                       05EC - 05EF               4 
                                       05FA - 0601               8 
                                       0606 - 0609               4 
                                       060E - 060F               2 
                                       061C - 061D               2 
                                       0640 - 0641               2 
                                       0646 - 0649               4 
                                       064E - 064F               2 
                                       0660 - 0661               2 
                                       066A - 066D               4 
                                       0740 - 0745               6 
                                       074A - 074B               2 
                                       0752 - 0753               2 
                                       075A - 075D               4 
                                       0800 - 0805               6 
                                       0808 - 080D               6 
                                       0810 - 0827              18 
                                       0850 - 085B               C 
                                       09E0 - 09E1               2 
                                       09E4 - 09E5               2 
                                       09F4 - 09F7               4 
                                       09FC - 0A0F              14 
                                       0A12 - 0A13               2 
                                       0A20 - 0A20               1 
INFO                                   1800 - 187F              80   rel    1
CODE_I                                    1C00                       rel    1
DATA20_I                               1C00 - 1C12              13   rel    1
DATA20_Z                               1C14 - 2437             824   rel    1
DATA20_N                                  2438                       rel    1
CSTACK                                 3B6A - 3BFF              96   rel    1
CSTART                                 4000 - 402F              30   rel    1
ISR_CODE                               4030 - 445B             42C   rel    1
<CODE> 1                               445C - 932D            4ED2   rel    1
DATA20_C                               932E - 9C1F             8F2   rel    1
DATA20_ID                              9C20 - 9C32              13   rel    1
CODE_ID                                   9C34                       rel    1
INTVEC                                 FF80 - FFFD              7E   com    1
RESET                                  FFFE - FFFF               2   rel    1

                ****************************************
                *                                      *
                *        END OF CROSS REFERENCE        *
                *                                      *
                ****************************************

 21 422 bytes of CODE  memory
  2 253 bytes of DATA  memory (+ 297 absolute )
  2 437 bytes of CONST memory

Errors: none
Warnings: none

